ARM GAS  C:\Users\mliha\AppData\Local\Temp\cc428Uxc.s 			page 1


   1              		.cpu cortex-m0
   2              		.fpu softvfp
   3              		.eabi_attribute 20, 1
   4              		.eabi_attribute 21, 1
   5              		.eabi_attribute 23, 3
   6              		.eabi_attribute 24, 1
   7              		.eabi_attribute 25, 1
   8              		.eabi_attribute 26, 1
   9              		.eabi_attribute 30, 6
  10              		.eabi_attribute 34, 0
  11              		.eabi_attribute 18, 4
  12              		.code	16
  13              		.file	"BLE_1_eventHandler.c"
  14              		.text
  15              	.Ltext0:
  16              		.cfi_sections	.debug_frame
  17              		.comm	cyBle_eventHandlerFlag,1,1
  18              		.comm	cyBle_connHandle,2,4
  19              		.comm	cyBle_busStatus,1,1
  20              		.comm	cyBle_advertisingIntervalType,1,1
  21              		.global	cyBle_authInfo
  22              		.data
  23              		.align	2
  24              		.type	cyBle_authInfo, %object
  25              		.size	cyBle_authInfo, 4
  26              	cyBle_authInfo:
  27 0000 10       		.byte	16
  28 0001 00       		.byte	0
  29 0002 10       		.byte	16
  30 0003 00       		.byte	0
  31              		.section	.text.CyBle_WriteReqHandler,"ax",%progbits
  32              		.align	2
  33              		.code	16
  34              		.thumb_func
  35              		.type	CyBle_WriteReqHandler, %function
  36              	CyBle_WriteReqHandler:
  37              	.LFB2:
  38              		.file 1 ".\\Generated_Source\\PSoC4\\BLE_1_eventHandler.c"
   1:.\Generated_Source\PSoC4/BLE_1_eventHandler.c **** /*******************************************************************************
   2:.\Generated_Source\PSoC4/BLE_1_eventHandler.c **** File Name: CYBLE_eventHandler.c
   3:.\Generated_Source\PSoC4/BLE_1_eventHandler.c **** Version 1.10
   4:.\Generated_Source\PSoC4/BLE_1_eventHandler.c **** 
   5:.\Generated_Source\PSoC4/BLE_1_eventHandler.c **** Description:
   6:.\Generated_Source\PSoC4/BLE_1_eventHandler.c ****  This file contains the source code for the Event Handler State Machine
   7:.\Generated_Source\PSoC4/BLE_1_eventHandler.c ****  of the BLE Component.
   8:.\Generated_Source\PSoC4/BLE_1_eventHandler.c **** 
   9:.\Generated_Source\PSoC4/BLE_1_eventHandler.c **** ********************************************************************************
  10:.\Generated_Source\PSoC4/BLE_1_eventHandler.c **** Copyright 2014, Cypress Semiconductor Corporation.  All rights reserved.
  11:.\Generated_Source\PSoC4/BLE_1_eventHandler.c **** You may use this file only in accordance with the license, terms, conditions,
  12:.\Generated_Source\PSoC4/BLE_1_eventHandler.c **** disclaimers, and limitations in the end user license agreement accompanying
  13:.\Generated_Source\PSoC4/BLE_1_eventHandler.c **** the software package with which this file was provided.
  14:.\Generated_Source\PSoC4/BLE_1_eventHandler.c **** *******************************************************************************/
  15:.\Generated_Source\PSoC4/BLE_1_eventHandler.c **** 
  16:.\Generated_Source\PSoC4/BLE_1_eventHandler.c **** #include "BLE_1_eventHandler.h"
  17:.\Generated_Source\PSoC4/BLE_1_eventHandler.c **** 
  18:.\Generated_Source\PSoC4/BLE_1_eventHandler.c **** 
  19:.\Generated_Source\PSoC4/BLE_1_eventHandler.c **** /***************************************
ARM GAS  C:\Users\mliha\AppData\Local\Temp\cc428Uxc.s 			page 2


  20:.\Generated_Source\PSoC4/BLE_1_eventHandler.c **** ##Private Function Prototypes
  21:.\Generated_Source\PSoC4/BLE_1_eventHandler.c **** ***************************************/
  22:.\Generated_Source\PSoC4/BLE_1_eventHandler.c **** 
  23:.\Generated_Source\PSoC4/BLE_1_eventHandler.c **** #if (CYBLE_GATT_ROLE_SERVER || CYBLE_GATT_ROLE_CLIENT)
  24:.\Generated_Source\PSoC4/BLE_1_eventHandler.c **** 
  25:.\Generated_Source\PSoC4/BLE_1_eventHandler.c **** static uint8 CyBle_IsDeviceAddressValid(const CYBLE_GAP_BD_ADDR_T *sflashDeviceAddress);
  26:.\Generated_Source\PSoC4/BLE_1_eventHandler.c **** 
  27:.\Generated_Source\PSoC4/BLE_1_eventHandler.c **** #endif /* (CYBLE_GATT_ROLE_SERVER || CYBLE_GATT_ROLE_CLIENT) */
  28:.\Generated_Source\PSoC4/BLE_1_eventHandler.c **** 
  29:.\Generated_Source\PSoC4/BLE_1_eventHandler.c **** static void CyBle_GattDisconnectEventHandler(void);
  30:.\Generated_Source\PSoC4/BLE_1_eventHandler.c **** static void CyBle_TimeOutEventHandler(const CYBLE_TO_REASON_CODE_T *eventParam);
  31:.\Generated_Source\PSoC4/BLE_1_eventHandler.c **** static void CyBle_GattConnectReqHandler(void);
  32:.\Generated_Source\PSoC4/BLE_1_eventHandler.c **** static void CyBle_L2Cap_ConnParamUpdateRspEventHandler(uint16 response);
  33:.\Generated_Source\PSoC4/BLE_1_eventHandler.c **** static void CyBle_GapConnUpdateCompleteEventHandler(const CYBLE_GAP_CONN_PARAM_UPDATED_IN_CONTROLLE
  34:.\Generated_Source\PSoC4/BLE_1_eventHandler.c **** 
  35:.\Generated_Source\PSoC4/BLE_1_eventHandler.c **** 
  36:.\Generated_Source\PSoC4/BLE_1_eventHandler.c **** #if (CYBLE_GATT_ROLE_SERVER)
  37:.\Generated_Source\PSoC4/BLE_1_eventHandler.c **** 
  38:.\Generated_Source\PSoC4/BLE_1_eventHandler.c **** static void CyBle_WriteReqHandler(CYBLE_GATTS_WRITE_REQ_PARAM_T *eventParam);
  39:.\Generated_Source\PSoC4/BLE_1_eventHandler.c **** static void CyBle_ValueConfirmation(const CYBLE_CONN_HANDLE_T *eventParam);
  40:.\Generated_Source\PSoC4/BLE_1_eventHandler.c **** 
  41:.\Generated_Source\PSoC4/BLE_1_eventHandler.c **** #endif /* (CYBLE_GATT_ROLE_SERVER) */
  42:.\Generated_Source\PSoC4/BLE_1_eventHandler.c **** 
  43:.\Generated_Source\PSoC4/BLE_1_eventHandler.c **** #if (CYBLE_GATT_ROLE_CLIENT)
  44:.\Generated_Source\PSoC4/BLE_1_eventHandler.c **** 
  45:.\Generated_Source\PSoC4/BLE_1_eventHandler.c **** static void CyBle_GapcDiscoverCharacteristicsEventHandler(CYBLE_DISC_CHAR_INFO_T *discCharInfo);
  46:.\Generated_Source\PSoC4/BLE_1_eventHandler.c **** static CYBLE_GATT_ATTR_HANDLE_RANGE_T CyBle_GetCharRange(void);
  47:.\Generated_Source\PSoC4/BLE_1_eventHandler.c **** static void CyBle_GattcWriteResponseEventHandler(const CYBLE_CONN_HANDLE_T *eventParam);
  48:.\Generated_Source\PSoC4/BLE_1_eventHandler.c **** 
  49:.\Generated_Source\PSoC4/BLE_1_eventHandler.c **** #endif /* (CYBLE_GATT_ROLE_CLIENT) */
  50:.\Generated_Source\PSoC4/BLE_1_eventHandler.c **** 
  51:.\Generated_Source\PSoC4/BLE_1_eventHandler.c **** 
  52:.\Generated_Source\PSoC4/BLE_1_eventHandler.c **** /***************************************
  53:.\Generated_Source\PSoC4/BLE_1_eventHandler.c **** ##Global Variables
  54:.\Generated_Source\PSoC4/BLE_1_eventHandler.c **** ***************************************/
  55:.\Generated_Source\PSoC4/BLE_1_eventHandler.c **** 
  56:.\Generated_Source\PSoC4/BLE_1_eventHandler.c **** volatile uint8 cyBle_eventHandlerFlag;
  57:.\Generated_Source\PSoC4/BLE_1_eventHandler.c **** CYBLE_CONN_HANDLE_T cyBle_connHandle;
  58:.\Generated_Source\PSoC4/BLE_1_eventHandler.c **** volatile uint8 cyBle_busStatus;
  59:.\Generated_Source\PSoC4/BLE_1_eventHandler.c **** 
  60:.\Generated_Source\PSoC4/BLE_1_eventHandler.c **** #if(CYBLE_GAP_ROLE_PERIPHERAL || CYBLE_GAP_ROLE_BROADCASTER) 
  61:.\Generated_Source\PSoC4/BLE_1_eventHandler.c ****     uint8 cyBle_advertisingIntervalType;
  62:.\Generated_Source\PSoC4/BLE_1_eventHandler.c **** #endif /* (CYBLE_GAP_ROLE_PERIPHERAL || CYBLE_GAP_ROLE_BROADCASTER) */
  63:.\Generated_Source\PSoC4/BLE_1_eventHandler.c **** 
  64:.\Generated_Source\PSoC4/BLE_1_eventHandler.c **** #if(CYBLE_GAP_ROLE_CENTRAL || CYBLE_GAP_ROLE_OBSERVER) 
  65:.\Generated_Source\PSoC4/BLE_1_eventHandler.c ****     uint8 cyBle_scanningIntervalType;
  66:.\Generated_Source\PSoC4/BLE_1_eventHandler.c **** #endif /* CYBLE_GAP_ROLE_CENTRAL || CYBLE_GAP_ROLE_OBSERVER */
  67:.\Generated_Source\PSoC4/BLE_1_eventHandler.c **** 
  68:.\Generated_Source\PSoC4/BLE_1_eventHandler.c **** #if(CYBLE_GATT_ROLE_CLIENT)
  69:.\Generated_Source\PSoC4/BLE_1_eventHandler.c **** uint8 cyBle_disCount; /* Counter for discovery procedures */
  70:.\Generated_Source\PSoC4/BLE_1_eventHandler.c **** static CYBLE_GATT_DB_ATTR_HANDLE_T cyBle_charEndHandle;
  71:.\Generated_Source\PSoC4/BLE_1_eventHandler.c **** #ifdef CYBLE_HIDS_CLIENT
  72:.\Generated_Source\PSoC4/BLE_1_eventHandler.c ****     static uint8 disServiceIndex;      /* To discovery descriptors for multiple HID service instanc
  73:.\Generated_Source\PSoC4/BLE_1_eventHandler.c **** #endif /* defined(CYBLE_HIDS_CLIENT) */
  74:.\Generated_Source\PSoC4/BLE_1_eventHandler.c **** 
  75:.\Generated_Source\PSoC4/BLE_1_eventHandler.c **** CYBLE_DISC_SRVC_INFO_T cyBle_serverInfo[CYBLE_SRVI_COUNT] = /*4*/
  76:.\Generated_Source\PSoC4/BLE_1_eventHandler.c **** {
ARM GAS  C:\Users\mliha\AppData\Local\Temp\cc428Uxc.s 			page 3


  77:.\Generated_Source\PSoC4/BLE_1_eventHandler.c ****     {{CYBLE_GATT_INVALID_ATTR_HANDLE_VALUE, CYBLE_GATT_INVALID_ATTR_HANDLE_VALUE}, CYBLE_UUID_GAP_S
  78:.\Generated_Source\PSoC4/BLE_1_eventHandler.c ****     {{CYBLE_GATT_INVALID_ATTR_HANDLE_VALUE, CYBLE_GATT_INVALID_ATTR_HANDLE_VALUE}, CYBLE_UUID_GATT_
  79:.\Generated_Source\PSoC4/BLE_1_eventHandler.c **** #ifdef CYBLE_ANS_CLIENT
  80:.\Generated_Source\PSoC4/BLE_1_eventHandler.c ****     {{CYBLE_GATT_INVALID_ATTR_HANDLE_VALUE, CYBLE_GATT_INVALID_ATTR_HANDLE_VALUE}, CYBLE_UUID_ALERT
  81:.\Generated_Source\PSoC4/BLE_1_eventHandler.c **** #endif /* CYBLE_ANS_CLIENT */
  82:.\Generated_Source\PSoC4/BLE_1_eventHandler.c **** #ifdef CYBLE_BAS_CLIENT
  83:.\Generated_Source\PSoC4/BLE_1_eventHandler.c ****     {{CYBLE_GATT_INVALID_ATTR_HANDLE_VALUE, CYBLE_GATT_INVALID_ATTR_HANDLE_VALUE}, CYBLE_UUID_BAS_S
  84:.\Generated_Source\PSoC4/BLE_1_eventHandler.c ****     #if(CYBLE_BASC_SERVICE_COUNT > 1u) /* Generate it by GUI */
  85:.\Generated_Source\PSoC4/BLE_1_eventHandler.c ****         
  86:.\Generated_Source\PSoC4/BLE_1_eventHandler.c ****     #endif /* CYBLE_BASC_SERVICE_COUNT > 1u */
  87:.\Generated_Source\PSoC4/BLE_1_eventHandler.c **** #endif /* CYBLE_BAS_CLIENT */
  88:.\Generated_Source\PSoC4/BLE_1_eventHandler.c **** #ifdef CYBLE_BLS_CLIENT
  89:.\Generated_Source\PSoC4/BLE_1_eventHandler.c ****     {{CYBLE_GATT_INVALID_ATTR_HANDLE_VALUE, CYBLE_GATT_INVALID_ATTR_HANDLE_VALUE}, CYBLE_UUID_BLOOD
  90:.\Generated_Source\PSoC4/BLE_1_eventHandler.c **** #endif /* CYBLE_BLS_CLIENT */
  91:.\Generated_Source\PSoC4/BLE_1_eventHandler.c **** #ifdef CYBLE_CPS_CLIENT
  92:.\Generated_Source\PSoC4/BLE_1_eventHandler.c ****     {{CYBLE_GATT_INVALID_ATTR_HANDLE_VALUE, CYBLE_GATT_INVALID_ATTR_HANDLE_VALUE}, CYBLE_UUID_CPS_S
  93:.\Generated_Source\PSoC4/BLE_1_eventHandler.c **** #endif /* CYBLE_CPS_CLIENT */
  94:.\Generated_Source\PSoC4/BLE_1_eventHandler.c **** #ifdef CYBLE_CSCS_CLIENT
  95:.\Generated_Source\PSoC4/BLE_1_eventHandler.c ****     {{CYBLE_GATT_INVALID_ATTR_HANDLE_VALUE, CYBLE_GATT_INVALID_ATTR_HANDLE_VALUE}, CYBLE_UUID_CYCLI
  96:.\Generated_Source\PSoC4/BLE_1_eventHandler.c **** #endif /* CYBLE_CSCS_CLIENT */
  97:.\Generated_Source\PSoC4/BLE_1_eventHandler.c **** #ifdef CYBLE_CTS_CLIENT
  98:.\Generated_Source\PSoC4/BLE_1_eventHandler.c ****     {{CYBLE_GATT_INVALID_ATTR_HANDLE_VALUE, CYBLE_GATT_INVALID_ATTR_HANDLE_VALUE}, CYBLE_UUID_CURRE
  99:.\Generated_Source\PSoC4/BLE_1_eventHandler.c **** #endif /* CYBLE_CTS_CLIENT */
 100:.\Generated_Source\PSoC4/BLE_1_eventHandler.c **** #ifdef CYBLE_DIS_CLIENT
 101:.\Generated_Source\PSoC4/BLE_1_eventHandler.c ****     {{CYBLE_GATT_INVALID_ATTR_HANDLE_VALUE, CYBLE_GATT_INVALID_ATTR_HANDLE_VALUE}, CYBLE_UUID_DEVIC
 102:.\Generated_Source\PSoC4/BLE_1_eventHandler.c **** #endif /* CYBLE_DIS_CLIENT */
 103:.\Generated_Source\PSoC4/BLE_1_eventHandler.c **** #ifdef CYBLE_GLS_CLIENT
 104:.\Generated_Source\PSoC4/BLE_1_eventHandler.c ****     {{CYBLE_GATT_INVALID_ATTR_HANDLE_VALUE, CYBLE_GATT_INVALID_ATTR_HANDLE_VALUE}, CYBLE_UUID_GLUCO
 105:.\Generated_Source\PSoC4/BLE_1_eventHandler.c **** #endif /* CYBLE_GLS_CLIENT */
 106:.\Generated_Source\PSoC4/BLE_1_eventHandler.c **** #ifdef CYBLE_HIDS_CLIENT
 107:.\Generated_Source\PSoC4/BLE_1_eventHandler.c ****     {{CYBLE_GATT_INVALID_ATTR_HANDLE_VALUE, CYBLE_GATT_INVALID_ATTR_HANDLE_VALUE}, CYBLE_UUID_HIDS_
 108:.\Generated_Source\PSoC4/BLE_1_eventHandler.c ****     #if(CYBLE_HIDSC_SERVICE_COUNT > 1u) /* Generate it by GUI */
 109:.\Generated_Source\PSoC4/BLE_1_eventHandler.c ****         
 110:.\Generated_Source\PSoC4/BLE_1_eventHandler.c ****     #endif /* CYBLE_HIDSC_SERVICE_COUNT > 1u */
 111:.\Generated_Source\PSoC4/BLE_1_eventHandler.c **** #endif /* CYBLE_HIDS_CLIENT */
 112:.\Generated_Source\PSoC4/BLE_1_eventHandler.c **** #ifdef CYBLE_HRS_CLIENT
 113:.\Generated_Source\PSoC4/BLE_1_eventHandler.c ****     {{CYBLE_GATT_INVALID_ATTR_HANDLE_VALUE, CYBLE_GATT_INVALID_ATTR_HANDLE_VALUE}, CYBLE_UUID_HEART
 114:.\Generated_Source\PSoC4/BLE_1_eventHandler.c **** #endif /* CYBLE_HRS_CLIENT */
 115:.\Generated_Source\PSoC4/BLE_1_eventHandler.c **** #ifdef CYBLE_HTS_CLIENT
 116:.\Generated_Source\PSoC4/BLE_1_eventHandler.c ****     {{CYBLE_GATT_INVALID_ATTR_HANDLE_VALUE, CYBLE_GATT_INVALID_ATTR_HANDLE_VALUE}, CYBLE_UUID_HEALT
 117:.\Generated_Source\PSoC4/BLE_1_eventHandler.c **** #endif /* CYBLE_HTS_CLIENT */
 118:.\Generated_Source\PSoC4/BLE_1_eventHandler.c **** #ifdef CYBLE_IAS_CLIENT
 119:.\Generated_Source\PSoC4/BLE_1_eventHandler.c ****     {{CYBLE_GATT_INVALID_ATTR_HANDLE_VALUE, CYBLE_GATT_INVALID_ATTR_HANDLE_VALUE}, CYBLE_UUID_IMMED
 120:.\Generated_Source\PSoC4/BLE_1_eventHandler.c **** #endif /* CYBLE_IAS_CLIENT */
 121:.\Generated_Source\PSoC4/BLE_1_eventHandler.c **** #ifdef CYBLE_LLS_CLIENT
 122:.\Generated_Source\PSoC4/BLE_1_eventHandler.c ****     {{CYBLE_GATT_INVALID_ATTR_HANDLE_VALUE, CYBLE_GATT_INVALID_ATTR_HANDLE_VALUE}, CYBLE_UUID_LINK_
 123:.\Generated_Source\PSoC4/BLE_1_eventHandler.c **** #endif /* CYBLE_LLS_CLIENT */
 124:.\Generated_Source\PSoC4/BLE_1_eventHandler.c **** #ifdef CYBLE_LNS_CLIENT
 125:.\Generated_Source\PSoC4/BLE_1_eventHandler.c ****     {{CYBLE_GATT_INVALID_ATTR_HANDLE_VALUE, CYBLE_GATT_INVALID_ATTR_HANDLE_VALUE}, CYBLE_UUID_LOCAT
 126:.\Generated_Source\PSoC4/BLE_1_eventHandler.c **** #endif /* CYBLE_LNS_CLIENT */
 127:.\Generated_Source\PSoC4/BLE_1_eventHandler.c **** #ifdef CYBLE_NDCS_CLIENT
 128:.\Generated_Source\PSoC4/BLE_1_eventHandler.c ****     {{CYBLE_GATT_INVALID_ATTR_HANDLE_VALUE, CYBLE_GATT_INVALID_ATTR_HANDLE_VALUE}, CYBLE_UUID_NEXT_
 129:.\Generated_Source\PSoC4/BLE_1_eventHandler.c **** #endif /* CYBLE_NDCS_CLIENT */
 130:.\Generated_Source\PSoC4/BLE_1_eventHandler.c **** #ifdef CYBLE_PASS_CLIENT
 131:.\Generated_Source\PSoC4/BLE_1_eventHandler.c ****     {{CYBLE_GATT_INVALID_ATTR_HANDLE_VALUE, CYBLE_GATT_INVALID_ATTR_HANDLE_VALUE}, CYBLE_UUID_PHONE
 132:.\Generated_Source\PSoC4/BLE_1_eventHandler.c **** #endif /* CYBLE_PASS_CLIENT */
 133:.\Generated_Source\PSoC4/BLE_1_eventHandler.c **** #ifdef CYBLE_RSCS_CLIENT
ARM GAS  C:\Users\mliha\AppData\Local\Temp\cc428Uxc.s 			page 4


 134:.\Generated_Source\PSoC4/BLE_1_eventHandler.c ****     {{CYBLE_GATT_INVALID_ATTR_HANDLE_VALUE, CYBLE_GATT_INVALID_ATTR_HANDLE_VALUE}, CYBLE_UUID_RUNNI
 135:.\Generated_Source\PSoC4/BLE_1_eventHandler.c **** #endif /* CYBLE_RSCS_CLIENT */
 136:.\Generated_Source\PSoC4/BLE_1_eventHandler.c **** #ifdef CYBLE_RTUS_CLIENT
 137:.\Generated_Source\PSoC4/BLE_1_eventHandler.c ****     {{CYBLE_GATT_INVALID_ATTR_HANDLE_VALUE, CYBLE_GATT_INVALID_ATTR_HANDLE_VALUE}, CYBLE_UUID_REF_T
 138:.\Generated_Source\PSoC4/BLE_1_eventHandler.c **** #endif /* CYBLE_RTUS_CLIENT */
 139:.\Generated_Source\PSoC4/BLE_1_eventHandler.c **** #ifdef CYBLE_SCPS_CLIENT
 140:.\Generated_Source\PSoC4/BLE_1_eventHandler.c ****     {{CYBLE_GATT_INVALID_ATTR_HANDLE_VALUE, CYBLE_GATT_INVALID_ATTR_HANDLE_VALUE}, CYBLE_UUID_SCAN_
 141:.\Generated_Source\PSoC4/BLE_1_eventHandler.c **** #endif /* CYBLE_SCPS_CLIENT */
 142:.\Generated_Source\PSoC4/BLE_1_eventHandler.c **** #ifdef CYBLE_TPS_CLIENT
 143:.\Generated_Source\PSoC4/BLE_1_eventHandler.c ****     {{CYBLE_GATT_INVALID_ATTR_HANDLE_VALUE, CYBLE_GATT_INVALID_ATTR_HANDLE_VALUE}, CYBLE_UUID_TX_PO
 144:.\Generated_Source\PSoC4/BLE_1_eventHandler.c **** #endif /* CYBLE_TPS_CLIENT */
 145:.\Generated_Source\PSoC4/BLE_1_eventHandler.c **** 
 146:.\Generated_Source\PSoC4/BLE_1_eventHandler.c **** };
 147:.\Generated_Source\PSoC4/BLE_1_eventHandler.c **** 
 148:.\Generated_Source\PSoC4/BLE_1_eventHandler.c **** CYBLE_GAPC_T cyBle_gapc;
 149:.\Generated_Source\PSoC4/BLE_1_eventHandler.c **** 
 150:.\Generated_Source\PSoC4/BLE_1_eventHandler.c **** #endif /* CYBLE_GATT_ROLE_CLIENT */
 151:.\Generated_Source\PSoC4/BLE_1_eventHandler.c **** 
 152:.\Generated_Source\PSoC4/BLE_1_eventHandler.c **** /* Default device security */
 153:.\Generated_Source\PSoC4/BLE_1_eventHandler.c **** CYBLE_GAP_AUTH_INFO_T cyBle_authInfo =
 154:.\Generated_Source\PSoC4/BLE_1_eventHandler.c **** {
 155:.\Generated_Source\PSoC4/BLE_1_eventHandler.c ****     (CYBLE_GAP_SEC_MODE_1 | CYBLE_GAP_SEC_LEVEL_1 ), /* uint8 security */
 156:.\Generated_Source\PSoC4/BLE_1_eventHandler.c ****     CYBLE_GAP_BONDING_NONE, /* uint8 bonding */
 157:.\Generated_Source\PSoC4/BLE_1_eventHandler.c ****     0x10u,      /* uint8 ekeySize */
 158:.\Generated_Source\PSoC4/BLE_1_eventHandler.c ****     CYBLE_GAP_AUTH_ERROR_NONE, /* CYBLE_AUTH_FAILED_REASON_T authErr */
 159:.\Generated_Source\PSoC4/BLE_1_eventHandler.c **** };
 160:.\Generated_Source\PSoC4/BLE_1_eventHandler.c **** 
 161:.\Generated_Source\PSoC4/BLE_1_eventHandler.c **** #if(CYBLE_GATT_ROLE_SERVER)
 162:.\Generated_Source\PSoC4/BLE_1_eventHandler.c **** 
 163:.\Generated_Source\PSoC4/BLE_1_eventHandler.c **** 
 164:.\Generated_Source\PSoC4/BLE_1_eventHandler.c **** /******************************************************************************    
 165:.\Generated_Source\PSoC4/BLE_1_eventHandler.c **** ##Function Name: CyBle_WriteReqHandler
 166:.\Generated_Source\PSoC4/BLE_1_eventHandler.c **** *******************************************************************************
 167:.\Generated_Source\PSoC4/BLE_1_eventHandler.c **** 
 168:.\Generated_Source\PSoC4/BLE_1_eventHandler.c **** Summary:
 169:.\Generated_Source\PSoC4/BLE_1_eventHandler.c ****  Handles the Write Request event from BLE stack.
 170:.\Generated_Source\PSoC4/BLE_1_eventHandler.c **** 
 171:.\Generated_Source\PSoC4/BLE_1_eventHandler.c **** Parameters:
 172:.\Generated_Source\PSoC4/BLE_1_eventHandler.c ****  CYBLE_GATTS_WRITE_REQ_PARAM_T * eventParam - event parameter
 173:.\Generated_Source\PSoC4/BLE_1_eventHandler.c **** 
 174:.\Generated_Source\PSoC4/BLE_1_eventHandler.c **** Return:
 175:.\Generated_Source\PSoC4/BLE_1_eventHandler.c ****  None
 176:.\Generated_Source\PSoC4/BLE_1_eventHandler.c **** 
 177:.\Generated_Source\PSoC4/BLE_1_eventHandler.c **** ******************************************************************************/
 178:.\Generated_Source\PSoC4/BLE_1_eventHandler.c **** static void CyBle_WriteReqHandler(CYBLE_GATTS_WRITE_REQ_PARAM_T *eventParam)
 179:.\Generated_Source\PSoC4/BLE_1_eventHandler.c **** {
  39              		.loc 1 179 0
  40              		.cfi_startproc
  41 0000 90B5     		push	{r4, r7, lr}
  42              		.cfi_def_cfa_offset 12
  43              		.cfi_offset 4, -12
  44              		.cfi_offset 7, -8
  45              		.cfi_offset 14, -4
  46 0002 85B0     		sub	sp, sp, #20
  47              		.cfi_def_cfa_offset 32
  48 0004 00AF     		add	r7, sp, #0
  49              		.cfi_def_cfa_register 7
ARM GAS  C:\Users\mliha\AppData\Local\Temp\cc428Uxc.s 			page 5


  50 0006 7860     		str	r0, [r7, #4]
 180:.\Generated_Source\PSoC4/BLE_1_eventHandler.c ****     CYBLE_GATT_ERR_CODE_T gattErr;
 181:.\Generated_Source\PSoC4/BLE_1_eventHandler.c ****     
 182:.\Generated_Source\PSoC4/BLE_1_eventHandler.c ****     gattErr = CyBle_GattsWriteEventHandler(eventParam);
  51              		.loc 1 182 0
  52 0008 3C1C     		mov	r4, r7
  53 000a 0F34     		add	r4, r4, #15
  54 000c 7B68     		ldr	r3, [r7, #4]
  55 000e 181C     		mov	r0, r3
  56 0010 FFF7FEFF 		bl	CyBle_GattsWriteEventHandler
  57 0014 031C     		mov	r3, r0
  58 0016 2370     		strb	r3, [r4]
 183:.\Generated_Source\PSoC4/BLE_1_eventHandler.c **** #if defined(CYBLE_ANS_SERVER)
 184:.\Generated_Source\PSoC4/BLE_1_eventHandler.c ****     if((CYBLE_GATT_ERR_NONE == gattErr) && ((cyBle_eventHandlerFlag & CYBLE_CALLBACK) != 0u))
 185:.\Generated_Source\PSoC4/BLE_1_eventHandler.c ****     {
 186:.\Generated_Source\PSoC4/BLE_1_eventHandler.c ****         gattErr = CyBle_AnssWriteEventHandler(eventParam);
 187:.\Generated_Source\PSoC4/BLE_1_eventHandler.c ****     }
 188:.\Generated_Source\PSoC4/BLE_1_eventHandler.c **** #endif /* defined(CYBLE_ANS_SERVER) */
 189:.\Generated_Source\PSoC4/BLE_1_eventHandler.c **** #if defined(CYBLE_BAS_SERVER)
 190:.\Generated_Source\PSoC4/BLE_1_eventHandler.c ****     if((CYBLE_GATT_ERR_NONE == gattErr) && ((cyBle_eventHandlerFlag & CYBLE_CALLBACK) != 0u))
 191:.\Generated_Source\PSoC4/BLE_1_eventHandler.c ****     {
 192:.\Generated_Source\PSoC4/BLE_1_eventHandler.c ****         gattErr = CyBle_BassWriteEventHandler(eventParam);
 193:.\Generated_Source\PSoC4/BLE_1_eventHandler.c ****     }
 194:.\Generated_Source\PSoC4/BLE_1_eventHandler.c **** #endif /* defined(CYBLE_BAS_SERVER) */
 195:.\Generated_Source\PSoC4/BLE_1_eventHandler.c **** #if defined(CYBLE_BLS_SERVER)
 196:.\Generated_Source\PSoC4/BLE_1_eventHandler.c ****     if((CYBLE_GATT_ERR_NONE == gattErr) && ((cyBle_eventHandlerFlag & CYBLE_CALLBACK) != 0u))
 197:.\Generated_Source\PSoC4/BLE_1_eventHandler.c ****     {
 198:.\Generated_Source\PSoC4/BLE_1_eventHandler.c ****         gattErr = CyBle_BlssWriteEventHandler(eventParam);
 199:.\Generated_Source\PSoC4/BLE_1_eventHandler.c ****     }
 200:.\Generated_Source\PSoC4/BLE_1_eventHandler.c **** #endif /* defined(CYBLE_BLS_SERVER) */
 201:.\Generated_Source\PSoC4/BLE_1_eventHandler.c **** #if defined(CYBLE_CPS_SERVER)
 202:.\Generated_Source\PSoC4/BLE_1_eventHandler.c ****     if((CYBLE_GATT_ERR_NONE == gattErr) && ((cyBle_eventHandlerFlag & CYBLE_CALLBACK) != 0u))
 203:.\Generated_Source\PSoC4/BLE_1_eventHandler.c ****     {
 204:.\Generated_Source\PSoC4/BLE_1_eventHandler.c ****         gattErr = CyBle_CpssWriteEventHandler(eventParam);
 205:.\Generated_Source\PSoC4/BLE_1_eventHandler.c ****     }
 206:.\Generated_Source\PSoC4/BLE_1_eventHandler.c **** #endif /* defined(CYBLE_CPS_SERVER) */
 207:.\Generated_Source\PSoC4/BLE_1_eventHandler.c **** #if defined(CYBLE_CSCS_SERVER)
 208:.\Generated_Source\PSoC4/BLE_1_eventHandler.c ****     if((CYBLE_GATT_ERR_NONE == gattErr) && ((cyBle_eventHandlerFlag & CYBLE_CALLBACK) != 0u))
 209:.\Generated_Source\PSoC4/BLE_1_eventHandler.c ****     {
 210:.\Generated_Source\PSoC4/BLE_1_eventHandler.c ****         gattErr = CyBle_CscssWriteEventHandler(eventParam);
 211:.\Generated_Source\PSoC4/BLE_1_eventHandler.c ****     }
 212:.\Generated_Source\PSoC4/BLE_1_eventHandler.c **** #endif /* defined(CYBLE_CSCS_SERVER) */
 213:.\Generated_Source\PSoC4/BLE_1_eventHandler.c **** #if defined(CYBLE_CTS_SERVER)
 214:.\Generated_Source\PSoC4/BLE_1_eventHandler.c ****     if((CYBLE_GATT_ERR_NONE == gattErr) && ((cyBle_eventHandlerFlag & CYBLE_CALLBACK) != 0u))
 215:.\Generated_Source\PSoC4/BLE_1_eventHandler.c ****     {
 216:.\Generated_Source\PSoC4/BLE_1_eventHandler.c ****         gattErr = CyBle_CtssWriteEventHandler(eventParam);
 217:.\Generated_Source\PSoC4/BLE_1_eventHandler.c ****     }
 218:.\Generated_Source\PSoC4/BLE_1_eventHandler.c **** #endif /* defined(CYBLE_CTS_SERVER) */
 219:.\Generated_Source\PSoC4/BLE_1_eventHandler.c **** #if defined(CYBLE_GLS_SERVER)
 220:.\Generated_Source\PSoC4/BLE_1_eventHandler.c ****     if((CYBLE_GATT_ERR_NONE == gattErr) && ((cyBle_eventHandlerFlag & CYBLE_CALLBACK) != 0u))
 221:.\Generated_Source\PSoC4/BLE_1_eventHandler.c ****     {
 222:.\Generated_Source\PSoC4/BLE_1_eventHandler.c ****         gattErr = CyBle_GlssWriteEventHandler(eventParam);
 223:.\Generated_Source\PSoC4/BLE_1_eventHandler.c ****     }
 224:.\Generated_Source\PSoC4/BLE_1_eventHandler.c **** #endif /* defined(CYBLE_GLS_SERVER) */
 225:.\Generated_Source\PSoC4/BLE_1_eventHandler.c **** #if defined(CYBLE_HIDS_SERVER)
 226:.\Generated_Source\PSoC4/BLE_1_eventHandler.c ****     if((CYBLE_GATT_ERR_NONE == gattErr) && ((cyBle_eventHandlerFlag & CYBLE_CALLBACK) != 0u))
 227:.\Generated_Source\PSoC4/BLE_1_eventHandler.c ****     {
ARM GAS  C:\Users\mliha\AppData\Local\Temp\cc428Uxc.s 			page 6


 228:.\Generated_Source\PSoC4/BLE_1_eventHandler.c ****         gattErr = CyBle_HidssWriteEventHandler(eventParam);
 229:.\Generated_Source\PSoC4/BLE_1_eventHandler.c ****     }
 230:.\Generated_Source\PSoC4/BLE_1_eventHandler.c **** #endif /* defined(CYBLE_HIDS_SERVER) */
 231:.\Generated_Source\PSoC4/BLE_1_eventHandler.c **** #if defined(CYBLE_HRS_SERVER)
 232:.\Generated_Source\PSoC4/BLE_1_eventHandler.c ****     if((CYBLE_GATT_ERR_NONE == gattErr) && ((cyBle_eventHandlerFlag & CYBLE_CALLBACK) != 0u))
  59              		.loc 1 232 0
  60 0018 3B1C     		mov	r3, r7
  61 001a 0F33     		add	r3, r3, #15
  62 001c 1B78     		ldrb	r3, [r3]
  63 001e 002B     		cmp	r3, #0
  64 0020 0ED1     		bne	.L2
  65              		.loc 1 232 0 is_stmt 0 discriminator 1
  66 0022 1C4B     		ldr	r3, .L5
  67 0024 1B78     		ldrb	r3, [r3]
  68 0026 DBB2     		uxtb	r3, r3
  69 0028 1A1C     		mov	r2, r3
  70 002a 0123     		mov	r3, #1
  71 002c 1340     		and	r3, r2
  72 002e 07D0     		beq	.L2
 233:.\Generated_Source\PSoC4/BLE_1_eventHandler.c ****     {
 234:.\Generated_Source\PSoC4/BLE_1_eventHandler.c ****         gattErr = CyBle_HrssWriteEventHandler(eventParam);
  73              		.loc 1 234 0 is_stmt 1
  74 0030 3C1C     		mov	r4, r7
  75 0032 0F34     		add	r4, r4, #15
  76 0034 7B68     		ldr	r3, [r7, #4]
  77 0036 181C     		mov	r0, r3
  78 0038 FFF7FEFF 		bl	CyBle_HrssWriteEventHandler
  79 003c 031C     		mov	r3, r0
  80 003e 2370     		strb	r3, [r4]
  81              	.L2:
 235:.\Generated_Source\PSoC4/BLE_1_eventHandler.c ****     }
 236:.\Generated_Source\PSoC4/BLE_1_eventHandler.c **** #endif /* defined(CYBLE_HRS_SERVER) */
 237:.\Generated_Source\PSoC4/BLE_1_eventHandler.c **** #if defined(CYBLE_HTS_SERVER)
 238:.\Generated_Source\PSoC4/BLE_1_eventHandler.c ****     if((CYBLE_GATT_ERR_NONE == gattErr) && ((cyBle_eventHandlerFlag & CYBLE_CALLBACK) != 0u))
 239:.\Generated_Source\PSoC4/BLE_1_eventHandler.c ****     {
 240:.\Generated_Source\PSoC4/BLE_1_eventHandler.c ****         gattErr = CyBle_HtssWriteEventHandler(eventParam);
 241:.\Generated_Source\PSoC4/BLE_1_eventHandler.c ****     }
 242:.\Generated_Source\PSoC4/BLE_1_eventHandler.c **** #endif /* defined(CYBLE_TPS_SERVER) */
 243:.\Generated_Source\PSoC4/BLE_1_eventHandler.c **** #if defined(CYBLE_LLS_SERVER)
 244:.\Generated_Source\PSoC4/BLE_1_eventHandler.c ****     if((CYBLE_GATT_ERR_NONE == gattErr) && ((cyBle_eventHandlerFlag & CYBLE_CALLBACK) != 0u))
 245:.\Generated_Source\PSoC4/BLE_1_eventHandler.c ****     {
 246:.\Generated_Source\PSoC4/BLE_1_eventHandler.c ****         gattErr = CyBle_LlssWriteEventHandler(eventParam);
 247:.\Generated_Source\PSoC4/BLE_1_eventHandler.c ****     }
 248:.\Generated_Source\PSoC4/BLE_1_eventHandler.c **** #endif /* defined(CYBLE_LLS_SERVER) */
 249:.\Generated_Source\PSoC4/BLE_1_eventHandler.c **** #if defined(CYBLE_LNS_SERVER)
 250:.\Generated_Source\PSoC4/BLE_1_eventHandler.c ****     if((CYBLE_GATT_ERR_NONE == gattErr) && ((cyBle_eventHandlerFlag & CYBLE_CALLBACK) != 0u))
 251:.\Generated_Source\PSoC4/BLE_1_eventHandler.c ****     {
 252:.\Generated_Source\PSoC4/BLE_1_eventHandler.c ****         gattErr = CyBle_LnssWriteEventHandler(eventParam);
 253:.\Generated_Source\PSoC4/BLE_1_eventHandler.c ****     }
 254:.\Generated_Source\PSoC4/BLE_1_eventHandler.c **** #endif /* defined(CYBLE_LNS_SERVER) */
 255:.\Generated_Source\PSoC4/BLE_1_eventHandler.c **** #if defined(CYBLE_PASS_SERVER)
 256:.\Generated_Source\PSoC4/BLE_1_eventHandler.c ****     if((CYBLE_GATT_ERR_NONE == gattErr) && ((cyBle_eventHandlerFlag & CYBLE_CALLBACK) != 0u))
 257:.\Generated_Source\PSoC4/BLE_1_eventHandler.c ****     {
 258:.\Generated_Source\PSoC4/BLE_1_eventHandler.c ****         gattErr = CyBle_PasssWriteEventHandler(eventParam);
 259:.\Generated_Source\PSoC4/BLE_1_eventHandler.c ****     }
 260:.\Generated_Source\PSoC4/BLE_1_eventHandler.c **** #endif /* defined(CYBLE_PASS_SERVER) */
 261:.\Generated_Source\PSoC4/BLE_1_eventHandler.c **** #if defined(CYBLE_RSCS_SERVER)
ARM GAS  C:\Users\mliha\AppData\Local\Temp\cc428Uxc.s 			page 7


 262:.\Generated_Source\PSoC4/BLE_1_eventHandler.c ****     if((CYBLE_GATT_ERR_NONE == gattErr) && ((cyBle_eventHandlerFlag & CYBLE_CALLBACK) != 0u))
 263:.\Generated_Source\PSoC4/BLE_1_eventHandler.c ****     {
 264:.\Generated_Source\PSoC4/BLE_1_eventHandler.c ****         gattErr = CyBle_RscssWriteEventHandler(eventParam);
 265:.\Generated_Source\PSoC4/BLE_1_eventHandler.c ****     }
 266:.\Generated_Source\PSoC4/BLE_1_eventHandler.c **** #endif /* defined(CYBLE_RSCS_SERVER) */
 267:.\Generated_Source\PSoC4/BLE_1_eventHandler.c **** #if defined(CYBLE_SCPS_SERVER)
 268:.\Generated_Source\PSoC4/BLE_1_eventHandler.c ****     if((CYBLE_GATT_ERR_NONE == gattErr) && ((cyBle_eventHandlerFlag & CYBLE_CALLBACK) != 0u))
 269:.\Generated_Source\PSoC4/BLE_1_eventHandler.c ****     {
 270:.\Generated_Source\PSoC4/BLE_1_eventHandler.c ****         gattErr = CyBle_ScpssWriteEventHandler(eventParam);
 271:.\Generated_Source\PSoC4/BLE_1_eventHandler.c ****     }
 272:.\Generated_Source\PSoC4/BLE_1_eventHandler.c **** #endif /* defined(CYBLE_SCPS_SERVER) */
 273:.\Generated_Source\PSoC4/BLE_1_eventHandler.c **** #if defined(CYBLE_TPS_SERVER)
 274:.\Generated_Source\PSoC4/BLE_1_eventHandler.c ****     if((CYBLE_GATT_ERR_NONE == gattErr) && ((cyBle_eventHandlerFlag & CYBLE_CALLBACK) != 0u))
 275:.\Generated_Source\PSoC4/BLE_1_eventHandler.c ****     {
 276:.\Generated_Source\PSoC4/BLE_1_eventHandler.c ****         gattErr = CyBle_TpssWriteEventHandler(eventParam);
 277:.\Generated_Source\PSoC4/BLE_1_eventHandler.c ****     }
 278:.\Generated_Source\PSoC4/BLE_1_eventHandler.c **** #endif /* defined(CYBLE_TPS_SERVER) */
 279:.\Generated_Source\PSoC4/BLE_1_eventHandler.c **** 
 280:.\Generated_Source\PSoC4/BLE_1_eventHandler.c ****     /* Send response when event was handled by service */
 281:.\Generated_Source\PSoC4/BLE_1_eventHandler.c ****     if((cyBle_eventHandlerFlag & CYBLE_CALLBACK) == 0u)
  82              		.loc 1 281 0
  83 0040 144B     		ldr	r3, .L5
  84 0042 1B78     		ldrb	r3, [r3]
  85 0044 DBB2     		uxtb	r3, r3
  86 0046 1A1C     		mov	r2, r3
  87 0048 0123     		mov	r3, #1
  88 004a 1340     		and	r3, r2
  89 004c 1FD1     		bne	.L1
 282:.\Generated_Source\PSoC4/BLE_1_eventHandler.c ****     {
 283:.\Generated_Source\PSoC4/BLE_1_eventHandler.c ****         if(CYBLE_GATT_ERR_NONE != gattErr)
  90              		.loc 1 283 0
  91 004e 3B1C     		mov	r3, r7
  92 0050 0F33     		add	r3, r3, #15
  93 0052 1B78     		ldrb	r3, [r3]
  94 0054 002B     		cmp	r3, #0
  95 0056 16D0     		beq	.L4
  96              	.LBB2:
 284:.\Generated_Source\PSoC4/BLE_1_eventHandler.c ****         {
 285:.\Generated_Source\PSoC4/BLE_1_eventHandler.c ****             CYBLE_GATTS_ERR_PARAM_T err_param;
 286:.\Generated_Source\PSoC4/BLE_1_eventHandler.c ****             
 287:.\Generated_Source\PSoC4/BLE_1_eventHandler.c ****             err_param.opcode = (uint8) CYBLE_GATT_WRITE_REQ;
  97              		.loc 1 287 0
  98 0058 3B1C     		mov	r3, r7
  99 005a 0833     		add	r3, r3, #8
 100 005c 1222     		mov	r2, #18
 101 005e 9A70     		strb	r2, [r3, #2]
 288:.\Generated_Source\PSoC4/BLE_1_eventHandler.c ****             err_param.attrHandle = eventParam->handleValPair.attrHandle;
 102              		.loc 1 288 0
 103 0060 7B68     		ldr	r3, [r7, #4]
 104 0062 9A89     		ldrh	r2, [r3, #12]
 105 0064 3B1C     		mov	r3, r7
 106 0066 0833     		add	r3, r3, #8
 107 0068 1A80     		strh	r2, [r3]
 289:.\Generated_Source\PSoC4/BLE_1_eventHandler.c ****             err_param.errorCode = gattErr;
 108              		.loc 1 289 0
 109 006a 3B1C     		mov	r3, r7
 110 006c 0833     		add	r3, r3, #8
ARM GAS  C:\Users\mliha\AppData\Local\Temp\cc428Uxc.s 			page 8


 111 006e 3A1C     		mov	r2, r7
 112 0070 0F32     		add	r2, r2, #15
 113 0072 1278     		ldrb	r2, [r2]
 114 0074 DA70     		strb	r2, [r3, #3]
 290:.\Generated_Source\PSoC4/BLE_1_eventHandler.c **** 
 291:.\Generated_Source\PSoC4/BLE_1_eventHandler.c ****             /* Send Error Response */
 292:.\Generated_Source\PSoC4/BLE_1_eventHandler.c ****             (void)CyBle_GattsErrorRsp(eventParam->connHandle, &err_param);
 115              		.loc 1 292 0
 116 0076 7B68     		ldr	r3, [r7, #4]
 117 0078 3A1C     		mov	r2, r7
 118 007a 0832     		add	r2, r2, #8
 119 007c 1868     		ldr	r0, [r3]
 120 007e 111C     		mov	r1, r2
 121 0080 FFF7FEFF 		bl	CyBle_GattsErrorRsp
 122              	.LBE2:
 123 0084 03E0     		b	.L1
 124              	.L4:
 293:.\Generated_Source\PSoC4/BLE_1_eventHandler.c ****         }
 294:.\Generated_Source\PSoC4/BLE_1_eventHandler.c ****         else
 295:.\Generated_Source\PSoC4/BLE_1_eventHandler.c ****         {
 296:.\Generated_Source\PSoC4/BLE_1_eventHandler.c ****             (void)CyBle_GattsWriteRsp(eventParam->connHandle);
 125              		.loc 1 296 0
 126 0086 7B68     		ldr	r3, [r7, #4]
 127 0088 1868     		ldr	r0, [r3]
 128 008a FFF7FEFF 		bl	CyBle_GattsWriteRsp
 129              	.L1:
 297:.\Generated_Source\PSoC4/BLE_1_eventHandler.c ****         }
 298:.\Generated_Source\PSoC4/BLE_1_eventHandler.c ****     }
 299:.\Generated_Source\PSoC4/BLE_1_eventHandler.c **** }
 130              		.loc 1 299 0
 131 008e BD46     		mov	sp, r7
 132 0090 05B0     		add	sp, sp, #20
 133              		@ sp needed
 134 0092 90BD     		pop	{r4, r7, pc}
 135              	.L6:
 136              		.align	2
 137              	.L5:
 138 0094 00000000 		.word	cyBle_eventHandlerFlag
 139              		.cfi_endproc
 140              	.LFE2:
 141              		.size	CyBle_WriteReqHandler, .-CyBle_WriteReqHandler
 142              		.section	.text.CyBle_ValueConfirmation,"ax",%progbits
 143              		.align	2
 144              		.code	16
 145              		.thumb_func
 146              		.type	CyBle_ValueConfirmation, %function
 147              	CyBle_ValueConfirmation:
 148              	.LFB3:
 300:.\Generated_Source\PSoC4/BLE_1_eventHandler.c **** 
 301:.\Generated_Source\PSoC4/BLE_1_eventHandler.c **** 
 302:.\Generated_Source\PSoC4/BLE_1_eventHandler.c **** /****************************************************************************** 
 303:.\Generated_Source\PSoC4/BLE_1_eventHandler.c **** ##Function Name: CyBle_ValueConfirmation
 304:.\Generated_Source\PSoC4/BLE_1_eventHandler.c **** *******************************************************************************
 305:.\Generated_Source\PSoC4/BLE_1_eventHandler.c **** 
 306:.\Generated_Source\PSoC4/BLE_1_eventHandler.c **** Summary:
 307:.\Generated_Source\PSoC4/BLE_1_eventHandler.c ****  Handles the Value Confirmation request event from the BLE stack.
 308:.\Generated_Source\PSoC4/BLE_1_eventHandler.c **** 
ARM GAS  C:\Users\mliha\AppData\Local\Temp\cc428Uxc.s 			page 9


 309:.\Generated_Source\PSoC4/BLE_1_eventHandler.c **** Parameters:
 310:.\Generated_Source\PSoC4/BLE_1_eventHandler.c ****  CYBLE_CONN_HANDLE_T *eventParam - Pointer to a structure
 311:.\Generated_Source\PSoC4/BLE_1_eventHandler.c ****     of type 'CYBLE_CONN_HANDLE_T'
 312:.\Generated_Source\PSoC4/BLE_1_eventHandler.c **** 
 313:.\Generated_Source\PSoC4/BLE_1_eventHandler.c **** Return:
 314:.\Generated_Source\PSoC4/BLE_1_eventHandler.c ****  None
 315:.\Generated_Source\PSoC4/BLE_1_eventHandler.c **** 
 316:.\Generated_Source\PSoC4/BLE_1_eventHandler.c **** ******************************************************************************/
 317:.\Generated_Source\PSoC4/BLE_1_eventHandler.c **** static void CyBle_ValueConfirmation(const CYBLE_CONN_HANDLE_T *eventParam)
 318:.\Generated_Source\PSoC4/BLE_1_eventHandler.c **** {
 149              		.loc 1 318 0
 150              		.cfi_startproc
 151 0000 80B5     		push	{r7, lr}
 152              		.cfi_def_cfa_offset 8
 153              		.cfi_offset 7, -8
 154              		.cfi_offset 14, -4
 155 0002 82B0     		sub	sp, sp, #8
 156              		.cfi_def_cfa_offset 16
 157 0004 00AF     		add	r7, sp, #0
 158              		.cfi_def_cfa_register 7
 159 0006 7860     		str	r0, [r7, #4]
 319:.\Generated_Source\PSoC4/BLE_1_eventHandler.c ****     if(eventParam != NULL)
 320:.\Generated_Source\PSoC4/BLE_1_eventHandler.c ****     {
 321:.\Generated_Source\PSoC4/BLE_1_eventHandler.c ****     #if defined(CYBLE_BLS_SERVER)
 322:.\Generated_Source\PSoC4/BLE_1_eventHandler.c ****         CyBle_BlssConfirmationEventHandler(eventParam);
 323:.\Generated_Source\PSoC4/BLE_1_eventHandler.c ****     #endif /* defined(CYBLE_BLS_SERVER) */
 324:.\Generated_Source\PSoC4/BLE_1_eventHandler.c ****     
 325:.\Generated_Source\PSoC4/BLE_1_eventHandler.c ****     #if defined(CYBLE_CPS_SERVER)
 326:.\Generated_Source\PSoC4/BLE_1_eventHandler.c ****         if((cyBle_eventHandlerFlag & CYBLE_CALLBACK) != 0u)
 327:.\Generated_Source\PSoC4/BLE_1_eventHandler.c ****         {
 328:.\Generated_Source\PSoC4/BLE_1_eventHandler.c ****             CyBle_CpssConfirmationEventHandler(eventParam);
 329:.\Generated_Source\PSoC4/BLE_1_eventHandler.c ****         }
 330:.\Generated_Source\PSoC4/BLE_1_eventHandler.c ****     #endif /* defined(CYBLE_CPS_SERVER) */
 331:.\Generated_Source\PSoC4/BLE_1_eventHandler.c ****     
 332:.\Generated_Source\PSoC4/BLE_1_eventHandler.c ****     #if defined(CYBLE_CSCS_SERVER)
 333:.\Generated_Source\PSoC4/BLE_1_eventHandler.c ****         if((cyBle_eventHandlerFlag & CYBLE_CALLBACK) != 0u)
 334:.\Generated_Source\PSoC4/BLE_1_eventHandler.c ****         {
 335:.\Generated_Source\PSoC4/BLE_1_eventHandler.c ****             CyBle_CscssConfirmationEventHandler(eventParam);
 336:.\Generated_Source\PSoC4/BLE_1_eventHandler.c ****         }
 337:.\Generated_Source\PSoC4/BLE_1_eventHandler.c ****     #endif /* defined(CYBLE_CSCS_SERVER) */
 338:.\Generated_Source\PSoC4/BLE_1_eventHandler.c ****     
 339:.\Generated_Source\PSoC4/BLE_1_eventHandler.c ****     #if defined(CYBLE_GLS_SERVER)
 340:.\Generated_Source\PSoC4/BLE_1_eventHandler.c ****         if((cyBle_eventHandlerFlag & CYBLE_CALLBACK) != 0u)
 341:.\Generated_Source\PSoC4/BLE_1_eventHandler.c ****         {
 342:.\Generated_Source\PSoC4/BLE_1_eventHandler.c ****             CyBle_GlssConfirmationEventHandler(eventParam);
 343:.\Generated_Source\PSoC4/BLE_1_eventHandler.c ****         }
 344:.\Generated_Source\PSoC4/BLE_1_eventHandler.c ****     #endif /* defined(CYBLE_GLS_SERVER) */
 345:.\Generated_Source\PSoC4/BLE_1_eventHandler.c ****     
 346:.\Generated_Source\PSoC4/BLE_1_eventHandler.c ****     #if defined(CYBLE_HTS_SERVER)
 347:.\Generated_Source\PSoC4/BLE_1_eventHandler.c ****         if((cyBle_eventHandlerFlag & CYBLE_CALLBACK) != 0u)
 348:.\Generated_Source\PSoC4/BLE_1_eventHandler.c ****         {
 349:.\Generated_Source\PSoC4/BLE_1_eventHandler.c ****             CyBle_HtssConfirmationEventHandler(eventParam);
 350:.\Generated_Source\PSoC4/BLE_1_eventHandler.c ****         }
 351:.\Generated_Source\PSoC4/BLE_1_eventHandler.c ****     #endif /* defined(CYBLE_HTS_SERVER) */
 352:.\Generated_Source\PSoC4/BLE_1_eventHandler.c **** 
 353:.\Generated_Source\PSoC4/BLE_1_eventHandler.c ****     #if defined(CYBLE_LNS_SERVER)
 354:.\Generated_Source\PSoC4/BLE_1_eventHandler.c ****         if((cyBle_eventHandlerFlag & CYBLE_CALLBACK) != 0u)
ARM GAS  C:\Users\mliha\AppData\Local\Temp\cc428Uxc.s 			page 10


 355:.\Generated_Source\PSoC4/BLE_1_eventHandler.c ****         {
 356:.\Generated_Source\PSoC4/BLE_1_eventHandler.c ****             CyBle_LnssConfirmationEventHandler(eventParam);
 357:.\Generated_Source\PSoC4/BLE_1_eventHandler.c ****         }
 358:.\Generated_Source\PSoC4/BLE_1_eventHandler.c ****     #endif /* defined(CYBLE_LNS_SERVER) */
 359:.\Generated_Source\PSoC4/BLE_1_eventHandler.c ****     
 360:.\Generated_Source\PSoC4/BLE_1_eventHandler.c ****     #if defined(CYBLE_RSCS_SERVER)
 361:.\Generated_Source\PSoC4/BLE_1_eventHandler.c ****         if((cyBle_eventHandlerFlag & CYBLE_CALLBACK) != 0u)
 362:.\Generated_Source\PSoC4/BLE_1_eventHandler.c ****         {
 363:.\Generated_Source\PSoC4/BLE_1_eventHandler.c ****             CyBle_RscssConfirmationEventHandler(eventParam);
 364:.\Generated_Source\PSoC4/BLE_1_eventHandler.c ****         }
 365:.\Generated_Source\PSoC4/BLE_1_eventHandler.c ****     #endif /* defined(CYBLE_RSCS_SERVER) */
 366:.\Generated_Source\PSoC4/BLE_1_eventHandler.c ****     }
 367:.\Generated_Source\PSoC4/BLE_1_eventHandler.c **** }
 160              		.loc 1 367 0
 161 0008 BD46     		mov	sp, r7
 162 000a 02B0     		add	sp, sp, #8
 163              		@ sp needed
 164 000c 80BD     		pop	{r7, pc}
 165              		.cfi_endproc
 166              	.LFE3:
 167              		.size	CyBle_ValueConfirmation, .-CyBle_ValueConfirmation
 168              		.section	.text.CyBle_GattDisconnectEventHandler,"ax",%progbits
 169              		.align	2
 170              		.code	16
 171              		.thumb_func
 172              		.type	CyBle_GattDisconnectEventHandler, %function
 173              	CyBle_GattDisconnectEventHandler:
 174              	.LFB4:
 368:.\Generated_Source\PSoC4/BLE_1_eventHandler.c **** 
 369:.\Generated_Source\PSoC4/BLE_1_eventHandler.c **** #endif /* (CYBLE_GATT_ROLE_SERVER) */
 370:.\Generated_Source\PSoC4/BLE_1_eventHandler.c **** 
 371:.\Generated_Source\PSoC4/BLE_1_eventHandler.c **** 
 372:.\Generated_Source\PSoC4/BLE_1_eventHandler.c **** #if (CYBLE_GATT_ROLE_CLIENT)
 373:.\Generated_Source\PSoC4/BLE_1_eventHandler.c **** 
 374:.\Generated_Source\PSoC4/BLE_1_eventHandler.c **** /****************************************************************************** 
 375:.\Generated_Source\PSoC4/BLE_1_eventHandler.c **** ##Function Name: CyBle_GattcWriteResponseEventHandler
 376:.\Generated_Source\PSoC4/BLE_1_eventHandler.c **** *******************************************************************************
 377:.\Generated_Source\PSoC4/BLE_1_eventHandler.c **** 
 378:.\Generated_Source\PSoC4/BLE_1_eventHandler.c **** Summary:
 379:.\Generated_Source\PSoC4/BLE_1_eventHandler.c ****  Handles the Write response event from the BLE stack.
 380:.\Generated_Source\PSoC4/BLE_1_eventHandler.c **** 
 381:.\Generated_Source\PSoC4/BLE_1_eventHandler.c **** Parameters:
 382:.\Generated_Source\PSoC4/BLE_1_eventHandler.c ****  CYBLE_CONN_HANDLE_T *eventParam - Pointer to a structure
 383:.\Generated_Source\PSoC4/BLE_1_eventHandler.c ****     of type 'CYBLE_CONN_HANDLE_T'
 384:.\Generated_Source\PSoC4/BLE_1_eventHandler.c **** 
 385:.\Generated_Source\PSoC4/BLE_1_eventHandler.c **** Return:
 386:.\Generated_Source\PSoC4/BLE_1_eventHandler.c ****  None
 387:.\Generated_Source\PSoC4/BLE_1_eventHandler.c **** 
 388:.\Generated_Source\PSoC4/BLE_1_eventHandler.c **** ******************************************************************************/
 389:.\Generated_Source\PSoC4/BLE_1_eventHandler.c **** static void CyBle_GattcWriteResponseEventHandler(const CYBLE_CONN_HANDLE_T *eventParam)
 390:.\Generated_Source\PSoC4/BLE_1_eventHandler.c **** {
 391:.\Generated_Source\PSoC4/BLE_1_eventHandler.c **** #ifdef CYBLE_ANS_CLIENT
 392:.\Generated_Source\PSoC4/BLE_1_eventHandler.c ****     CyBle_AnscWriteResponseEventHandler(eventParam);
 393:.\Generated_Source\PSoC4/BLE_1_eventHandler.c **** #endif /* CYBLE_ANS_CLIENT */
 394:.\Generated_Source\PSoC4/BLE_1_eventHandler.c **** 
 395:.\Generated_Source\PSoC4/BLE_1_eventHandler.c **** #ifdef CYBLE_BAS_CLIENT
 396:.\Generated_Source\PSoC4/BLE_1_eventHandler.c ****     if((cyBle_eventHandlerFlag & CYBLE_CALLBACK) != 0u)
ARM GAS  C:\Users\mliha\AppData\Local\Temp\cc428Uxc.s 			page 11


 397:.\Generated_Source\PSoC4/BLE_1_eventHandler.c ****     {
 398:.\Generated_Source\PSoC4/BLE_1_eventHandler.c ****         CyBle_BascWriteResponseEventHandler(eventParam);
 399:.\Generated_Source\PSoC4/BLE_1_eventHandler.c ****     }
 400:.\Generated_Source\PSoC4/BLE_1_eventHandler.c **** #endif /* CYBLE_BAS_CLIENT */
 401:.\Generated_Source\PSoC4/BLE_1_eventHandler.c **** 
 402:.\Generated_Source\PSoC4/BLE_1_eventHandler.c **** #ifdef CYBLE_BLS_CLIENT
 403:.\Generated_Source\PSoC4/BLE_1_eventHandler.c ****     if((cyBle_eventHandlerFlag & CYBLE_CALLBACK) != 0u)
 404:.\Generated_Source\PSoC4/BLE_1_eventHandler.c ****     {
 405:.\Generated_Source\PSoC4/BLE_1_eventHandler.c ****         CyBle_BlscWriteResponseEventHandler(eventParam);
 406:.\Generated_Source\PSoC4/BLE_1_eventHandler.c ****     }
 407:.\Generated_Source\PSoC4/BLE_1_eventHandler.c **** #endif /* CYBLE_BLS_CLIENT */
 408:.\Generated_Source\PSoC4/BLE_1_eventHandler.c **** 
 409:.\Generated_Source\PSoC4/BLE_1_eventHandler.c **** #ifdef CYBLE_CPS_CLIENT
 410:.\Generated_Source\PSoC4/BLE_1_eventHandler.c ****     if((cyBle_eventHandlerFlag & CYBLE_CALLBACK) != 0u)
 411:.\Generated_Source\PSoC4/BLE_1_eventHandler.c ****     {
 412:.\Generated_Source\PSoC4/BLE_1_eventHandler.c ****         CyBle_CpscWriteResponseEventHandler(eventParam);
 413:.\Generated_Source\PSoC4/BLE_1_eventHandler.c ****     }
 414:.\Generated_Source\PSoC4/BLE_1_eventHandler.c **** #endif /* CYBLE_CPS_CLIENT */
 415:.\Generated_Source\PSoC4/BLE_1_eventHandler.c **** 
 416:.\Generated_Source\PSoC4/BLE_1_eventHandler.c **** #ifdef CYBLE_CSCS_CLIENT
 417:.\Generated_Source\PSoC4/BLE_1_eventHandler.c ****     if((cyBle_eventHandlerFlag & CYBLE_CALLBACK) != 0u)
 418:.\Generated_Source\PSoC4/BLE_1_eventHandler.c ****     {
 419:.\Generated_Source\PSoC4/BLE_1_eventHandler.c ****         CyBle_CscscWriteResponseEventHandler(eventParam);
 420:.\Generated_Source\PSoC4/BLE_1_eventHandler.c ****     }
 421:.\Generated_Source\PSoC4/BLE_1_eventHandler.c **** #endif /* CYBLE_CSCS_CLIENT */
 422:.\Generated_Source\PSoC4/BLE_1_eventHandler.c **** 
 423:.\Generated_Source\PSoC4/BLE_1_eventHandler.c **** #ifdef CYBLE_CTS_CLIENT
 424:.\Generated_Source\PSoC4/BLE_1_eventHandler.c ****     if((cyBle_eventHandlerFlag & CYBLE_CALLBACK) != 0u)
 425:.\Generated_Source\PSoC4/BLE_1_eventHandler.c ****     {
 426:.\Generated_Source\PSoC4/BLE_1_eventHandler.c ****         CyBle_CtscWriteResponseEventHandler(eventParam);
 427:.\Generated_Source\PSoC4/BLE_1_eventHandler.c ****     }
 428:.\Generated_Source\PSoC4/BLE_1_eventHandler.c **** #endif /* CYBLE_CTS_CLIENT */
 429:.\Generated_Source\PSoC4/BLE_1_eventHandler.c **** 
 430:.\Generated_Source\PSoC4/BLE_1_eventHandler.c **** #ifdef CYBLE_GLS_CLIENT
 431:.\Generated_Source\PSoC4/BLE_1_eventHandler.c ****     if((cyBle_eventHandlerFlag & CYBLE_CALLBACK) != 0u)
 432:.\Generated_Source\PSoC4/BLE_1_eventHandler.c ****     {
 433:.\Generated_Source\PSoC4/BLE_1_eventHandler.c ****         CyBle_GlscWriteResponseEventHandler(eventParam);
 434:.\Generated_Source\PSoC4/BLE_1_eventHandler.c ****     }
 435:.\Generated_Source\PSoC4/BLE_1_eventHandler.c **** #endif /* CYBLE_GLS_CLIENT */
 436:.\Generated_Source\PSoC4/BLE_1_eventHandler.c **** 
 437:.\Generated_Source\PSoC4/BLE_1_eventHandler.c **** #ifdef CYBLE_HIDS_CLIENT
 438:.\Generated_Source\PSoC4/BLE_1_eventHandler.c ****     if((cyBle_eventHandlerFlag & CYBLE_CALLBACK) != 0u)
 439:.\Generated_Source\PSoC4/BLE_1_eventHandler.c ****     {
 440:.\Generated_Source\PSoC4/BLE_1_eventHandler.c ****         CyBle_HidscWriteResponseEventHandler(eventParam);
 441:.\Generated_Source\PSoC4/BLE_1_eventHandler.c ****     }
 442:.\Generated_Source\PSoC4/BLE_1_eventHandler.c **** #endif /* CYBLE_HIDS_CLIENT */
 443:.\Generated_Source\PSoC4/BLE_1_eventHandler.c **** 
 444:.\Generated_Source\PSoC4/BLE_1_eventHandler.c **** #ifdef CYBLE_HRS_CLIENT
 445:.\Generated_Source\PSoC4/BLE_1_eventHandler.c ****     if((cyBle_eventHandlerFlag & CYBLE_CALLBACK) != 0u)
 446:.\Generated_Source\PSoC4/BLE_1_eventHandler.c ****     {
 447:.\Generated_Source\PSoC4/BLE_1_eventHandler.c ****         CyBle_HrscWriteResponseEventHandler(eventParam);
 448:.\Generated_Source\PSoC4/BLE_1_eventHandler.c ****     }
 449:.\Generated_Source\PSoC4/BLE_1_eventHandler.c **** #endif /* CYBLE_HRS_CLIENT */
 450:.\Generated_Source\PSoC4/BLE_1_eventHandler.c **** 
 451:.\Generated_Source\PSoC4/BLE_1_eventHandler.c **** #ifdef CYBLE_HTS_CLIENT
 452:.\Generated_Source\PSoC4/BLE_1_eventHandler.c ****     if((cyBle_eventHandlerFlag & CYBLE_CALLBACK) != 0u)
 453:.\Generated_Source\PSoC4/BLE_1_eventHandler.c ****     {
ARM GAS  C:\Users\mliha\AppData\Local\Temp\cc428Uxc.s 			page 12


 454:.\Generated_Source\PSoC4/BLE_1_eventHandler.c ****         CyBle_HtscWriteResponseEventHandler(eventParam);
 455:.\Generated_Source\PSoC4/BLE_1_eventHandler.c ****     }
 456:.\Generated_Source\PSoC4/BLE_1_eventHandler.c **** #endif /* CYBLE_HTS_CLIENT */
 457:.\Generated_Source\PSoC4/BLE_1_eventHandler.c **** 
 458:.\Generated_Source\PSoC4/BLE_1_eventHandler.c **** #ifdef CYBLE_LLS_CLIENT
 459:.\Generated_Source\PSoC4/BLE_1_eventHandler.c ****     if((cyBle_eventHandlerFlag & CYBLE_CALLBACK) != 0u)
 460:.\Generated_Source\PSoC4/BLE_1_eventHandler.c ****     {
 461:.\Generated_Source\PSoC4/BLE_1_eventHandler.c ****         CyBle_LlscWriteResponseEventHandler(eventParam);
 462:.\Generated_Source\PSoC4/BLE_1_eventHandler.c ****     }
 463:.\Generated_Source\PSoC4/BLE_1_eventHandler.c **** #endif /* CYBLE_LLS_CLIENT */
 464:.\Generated_Source\PSoC4/BLE_1_eventHandler.c **** 
 465:.\Generated_Source\PSoC4/BLE_1_eventHandler.c **** #ifdef CYBLE_LNS_CLIENT
 466:.\Generated_Source\PSoC4/BLE_1_eventHandler.c ****     if((cyBle_eventHandlerFlag & CYBLE_CALLBACK) != 0u)
 467:.\Generated_Source\PSoC4/BLE_1_eventHandler.c ****     {
 468:.\Generated_Source\PSoC4/BLE_1_eventHandler.c ****         CyBle_LnscWriteResponseEventHandler(eventParam);
 469:.\Generated_Source\PSoC4/BLE_1_eventHandler.c ****     }
 470:.\Generated_Source\PSoC4/BLE_1_eventHandler.c **** #endif /* CYBLE_LNS_CLIENT */
 471:.\Generated_Source\PSoC4/BLE_1_eventHandler.c **** 
 472:.\Generated_Source\PSoC4/BLE_1_eventHandler.c **** #ifdef CYBLE_PASS_CLIENT
 473:.\Generated_Source\PSoC4/BLE_1_eventHandler.c ****     if((cyBle_eventHandlerFlag & CYBLE_CALLBACK) != 0u)
 474:.\Generated_Source\PSoC4/BLE_1_eventHandler.c ****     {
 475:.\Generated_Source\PSoC4/BLE_1_eventHandler.c ****         CyBle_PasscWriteResponseEventHandler(eventParam);
 476:.\Generated_Source\PSoC4/BLE_1_eventHandler.c ****     }
 477:.\Generated_Source\PSoC4/BLE_1_eventHandler.c **** #endif /* CYBLE_PASS_CLIENT */
 478:.\Generated_Source\PSoC4/BLE_1_eventHandler.c **** 
 479:.\Generated_Source\PSoC4/BLE_1_eventHandler.c **** #ifdef CYBLE_RSCS_CLIENT
 480:.\Generated_Source\PSoC4/BLE_1_eventHandler.c ****     if((cyBle_eventHandlerFlag & CYBLE_CALLBACK) != 0u)
 481:.\Generated_Source\PSoC4/BLE_1_eventHandler.c ****     {
 482:.\Generated_Source\PSoC4/BLE_1_eventHandler.c ****         CyBle_RscscWriteResponseEventHandler(eventParam);
 483:.\Generated_Source\PSoC4/BLE_1_eventHandler.c ****     }
 484:.\Generated_Source\PSoC4/BLE_1_eventHandler.c **** #endif /* CYBLE_RSCS_CLIENT */
 485:.\Generated_Source\PSoC4/BLE_1_eventHandler.c **** 
 486:.\Generated_Source\PSoC4/BLE_1_eventHandler.c **** #ifdef CYBLE_SCPS_CLIENT
 487:.\Generated_Source\PSoC4/BLE_1_eventHandler.c ****     if((cyBle_eventHandlerFlag & CYBLE_CALLBACK) != 0u)
 488:.\Generated_Source\PSoC4/BLE_1_eventHandler.c ****     {
 489:.\Generated_Source\PSoC4/BLE_1_eventHandler.c ****         CyBle_ScpscWriteResponseEventHandler(eventParam);
 490:.\Generated_Source\PSoC4/BLE_1_eventHandler.c ****     }
 491:.\Generated_Source\PSoC4/BLE_1_eventHandler.c **** #endif /* CYBLE_SCPS_CLIENT */
 492:.\Generated_Source\PSoC4/BLE_1_eventHandler.c **** 
 493:.\Generated_Source\PSoC4/BLE_1_eventHandler.c **** #ifdef CYBLE_TPS_CLIENT
 494:.\Generated_Source\PSoC4/BLE_1_eventHandler.c ****     if((cyBle_eventHandlerFlag & CYBLE_CALLBACK) != 0u)
 495:.\Generated_Source\PSoC4/BLE_1_eventHandler.c ****     {
 496:.\Generated_Source\PSoC4/BLE_1_eventHandler.c ****         CyBle_TpscWriteResponseEventHandler(eventParam);
 497:.\Generated_Source\PSoC4/BLE_1_eventHandler.c ****     }
 498:.\Generated_Source\PSoC4/BLE_1_eventHandler.c **** #endif /* CYBLE_TPS_CLIENT */
 499:.\Generated_Source\PSoC4/BLE_1_eventHandler.c **** }
 500:.\Generated_Source\PSoC4/BLE_1_eventHandler.c **** #endif /* (CYBLE_GATT_ROLE_CLIENT) */
 501:.\Generated_Source\PSoC4/BLE_1_eventHandler.c **** 
 502:.\Generated_Source\PSoC4/BLE_1_eventHandler.c **** 
 503:.\Generated_Source\PSoC4/BLE_1_eventHandler.c **** /****************************************************************************** 
 504:.\Generated_Source\PSoC4/BLE_1_eventHandler.c **** ##Function Name: CyBle_DisconnectEventHandler
 505:.\Generated_Source\PSoC4/BLE_1_eventHandler.c **** *******************************************************************************
 506:.\Generated_Source\PSoC4/BLE_1_eventHandler.c **** 
 507:.\Generated_Source\PSoC4/BLE_1_eventHandler.c **** Summary:
 508:.\Generated_Source\PSoC4/BLE_1_eventHandler.c ****  Handles the GATT Disconnection event from the BLE stack.
 509:.\Generated_Source\PSoC4/BLE_1_eventHandler.c **** 
 510:.\Generated_Source\PSoC4/BLE_1_eventHandler.c **** Parameters:
ARM GAS  C:\Users\mliha\AppData\Local\Temp\cc428Uxc.s 			page 13


 511:.\Generated_Source\PSoC4/BLE_1_eventHandler.c ****  None
 512:.\Generated_Source\PSoC4/BLE_1_eventHandler.c **** 
 513:.\Generated_Source\PSoC4/BLE_1_eventHandler.c **** Return:
 514:.\Generated_Source\PSoC4/BLE_1_eventHandler.c ****  None
 515:.\Generated_Source\PSoC4/BLE_1_eventHandler.c **** 
 516:.\Generated_Source\PSoC4/BLE_1_eventHandler.c **** ******************************************************************************/
 517:.\Generated_Source\PSoC4/BLE_1_eventHandler.c **** static void CyBle_GattDisconnectEventHandler(void)
 518:.\Generated_Source\PSoC4/BLE_1_eventHandler.c **** {
 175              		.loc 1 518 0
 176              		.cfi_startproc
 177 0000 80B5     		push	{r7, lr}
 178              		.cfi_def_cfa_offset 8
 179              		.cfi_offset 7, -8
 180              		.cfi_offset 14, -4
 181 0002 00AF     		add	r7, sp, #0
 182              		.cfi_def_cfa_register 7
 519:.\Generated_Source\PSoC4/BLE_1_eventHandler.c ****     cyBle_connHandle.attId = 0u;
 183              		.loc 1 519 0
 184 0004 034B     		ldr	r3, .L9
 185 0006 0022     		mov	r2, #0
 186 0008 5A70     		strb	r2, [r3, #1]
 520:.\Generated_Source\PSoC4/BLE_1_eventHandler.c ****     cyBle_connHandle.bdHandle = 0u;
 187              		.loc 1 520 0
 188 000a 024B     		ldr	r3, .L9
 189 000c 0022     		mov	r2, #0
 190 000e 1A70     		strb	r2, [r3]
 521:.\Generated_Source\PSoC4/BLE_1_eventHandler.c ****     
 522:.\Generated_Source\PSoC4/BLE_1_eventHandler.c ****     #if (CYBLE_GATT_ROLE_CLIENT)
 523:.\Generated_Source\PSoC4/BLE_1_eventHandler.c ****         if(CYBLE_CLIENT_STATE_DISCOVERED == CyBle_GetClientState())
 524:.\Generated_Source\PSoC4/BLE_1_eventHandler.c ****         {
 525:.\Generated_Source\PSoC4/BLE_1_eventHandler.c ****             CyBle_SetClientState(CYBLE_CLIENT_STATE_DISCONNECTED_DISCOVERED);
 526:.\Generated_Source\PSoC4/BLE_1_eventHandler.c ****         }
 527:.\Generated_Source\PSoC4/BLE_1_eventHandler.c ****         else
 528:.\Generated_Source\PSoC4/BLE_1_eventHandler.c ****         {
 529:.\Generated_Source\PSoC4/BLE_1_eventHandler.c ****             CyBle_SetClientState(CYBLE_CLIENT_STATE_DISCONNECTED);
 530:.\Generated_Source\PSoC4/BLE_1_eventHandler.c ****         }
 531:.\Generated_Source\PSoC4/BLE_1_eventHandler.c ****     #endif /* CYBLE_GATT_ROLE_CLIENT */
 532:.\Generated_Source\PSoC4/BLE_1_eventHandler.c ****         
 533:.\Generated_Source\PSoC4/BLE_1_eventHandler.c ****     #ifdef CYBLE_CPS_SERVER
 534:.\Generated_Source\PSoC4/BLE_1_eventHandler.c ****         #if CYBLE_GAP_ROLE_BROADCASTER
 535:.\Generated_Source\PSoC4/BLE_1_eventHandler.c ****             CyBle_CpssDisconnectEventHandler();
 536:.\Generated_Source\PSoC4/BLE_1_eventHandler.c ****         #endif /* CYBLE_GAP_ROLE_BROADCASTER */
 537:.\Generated_Source\PSoC4/BLE_1_eventHandler.c ****     #endif /* CYBLE_CPS_SERVER */
 538:.\Generated_Source\PSoC4/BLE_1_eventHandler.c **** 
 539:.\Generated_Source\PSoC4/BLE_1_eventHandler.c ****     #ifdef CYBLE_CPS_CLIENT
 540:.\Generated_Source\PSoC4/BLE_1_eventHandler.c ****         CyBle_CpscDisconnectEventHandler();
 541:.\Generated_Source\PSoC4/BLE_1_eventHandler.c ****     #endif /* CYBLE_CPS_CLIENT */
 542:.\Generated_Source\PSoC4/BLE_1_eventHandler.c **** 
 543:.\Generated_Source\PSoC4/BLE_1_eventHandler.c ****     #ifdef CYBLE_IAS_SERVER
 544:.\Generated_Source\PSoC4/BLE_1_eventHandler.c ****         CyBle_IassDisconnectEventHandler();
 545:.\Generated_Source\PSoC4/BLE_1_eventHandler.c ****     #endif /* CYBLE_IAS_SERVER */
 546:.\Generated_Source\PSoC4/BLE_1_eventHandler.c ****     
 547:.\Generated_Source\PSoC4/BLE_1_eventHandler.c ****     #ifdef CYBLE_GLS_SERVER
 548:.\Generated_Source\PSoC4/BLE_1_eventHandler.c ****         CyBle_GlsInit();
 549:.\Generated_Source\PSoC4/BLE_1_eventHandler.c ****     #endif /* CYBLE_GLS_SERVER */
 550:.\Generated_Source\PSoC4/BLE_1_eventHandler.c ****     
 551:.\Generated_Source\PSoC4/BLE_1_eventHandler.c ****     #ifdef CYBLE_LNS_SERVER
ARM GAS  C:\Users\mliha\AppData\Local\Temp\cc428Uxc.s 			page 14


 552:.\Generated_Source\PSoC4/BLE_1_eventHandler.c ****         CyBle_LnsInit();
 553:.\Generated_Source\PSoC4/BLE_1_eventHandler.c ****     #endif /* CYBLE_LNS_SERVER */
 554:.\Generated_Source\PSoC4/BLE_1_eventHandler.c **** }
 191              		.loc 1 554 0
 192 0010 BD46     		mov	sp, r7
 193              		@ sp needed
 194 0012 80BD     		pop	{r7, pc}
 195              	.L10:
 196              		.align	2
 197              	.L9:
 198 0014 00000000 		.word	cyBle_connHandle
 199              		.cfi_endproc
 200              	.LFE4:
 201              		.size	CyBle_GattDisconnectEventHandler, .-CyBle_GattDisconnectEventHandler
 202              		.section	.text.CyBle_TimeOutEventHandler,"ax",%progbits
 203              		.align	2
 204              		.code	16
 205              		.thumb_func
 206              		.type	CyBle_TimeOutEventHandler, %function
 207              	CyBle_TimeOutEventHandler:
 208              	.LFB5:
 555:.\Generated_Source\PSoC4/BLE_1_eventHandler.c **** 
 556:.\Generated_Source\PSoC4/BLE_1_eventHandler.c **** 
 557:.\Generated_Source\PSoC4/BLE_1_eventHandler.c **** /****************************************************************************** 
 558:.\Generated_Source\PSoC4/BLE_1_eventHandler.c **** ##Function Name: CyBle_TimeOutEventHandler
 559:.\Generated_Source\PSoC4/BLE_1_eventHandler.c **** *******************************************************************************
 560:.\Generated_Source\PSoC4/BLE_1_eventHandler.c **** 
 561:.\Generated_Source\PSoC4/BLE_1_eventHandler.c **** Summary:
 562:.\Generated_Source\PSoC4/BLE_1_eventHandler.c ****  Handles the CYBLE_EVT_TIMEOUT event from the BLE stack.
 563:.\Generated_Source\PSoC4/BLE_1_eventHandler.c **** 
 564:.\Generated_Source\PSoC4/BLE_1_eventHandler.c **** Parameters:
 565:.\Generated_Source\PSoC4/BLE_1_eventHandler.c ****  *eventParam - The pointer to a structure of type CYBLE_TO_REASON_CODE_T.
 566:.\Generated_Source\PSoC4/BLE_1_eventHandler.c **** 
 567:.\Generated_Source\PSoC4/BLE_1_eventHandler.c **** Return:
 568:.\Generated_Source\PSoC4/BLE_1_eventHandler.c ****  None
 569:.\Generated_Source\PSoC4/BLE_1_eventHandler.c **** 
 570:.\Generated_Source\PSoC4/BLE_1_eventHandler.c **** ******************************************************************************/
 571:.\Generated_Source\PSoC4/BLE_1_eventHandler.c **** static void CyBle_TimeOutEventHandler(const CYBLE_TO_REASON_CODE_T *eventParam)
 572:.\Generated_Source\PSoC4/BLE_1_eventHandler.c **** {
 209              		.loc 1 572 0
 210              		.cfi_startproc
 211 0000 80B5     		push	{r7, lr}
 212              		.cfi_def_cfa_offset 8
 213              		.cfi_offset 7, -8
 214              		.cfi_offset 14, -4
 215 0002 82B0     		sub	sp, sp, #8
 216              		.cfi_def_cfa_offset 16
 217 0004 00AF     		add	r7, sp, #0
 218              		.cfi_def_cfa_register 7
 219 0006 7860     		str	r0, [r7, #4]
 573:.\Generated_Source\PSoC4/BLE_1_eventHandler.c ****     if(*eventParam == CYBLE_GATT_RSP_TO)
 574:.\Generated_Source\PSoC4/BLE_1_eventHandler.c ****     {
 575:.\Generated_Source\PSoC4/BLE_1_eventHandler.c ****     #if (CYBLE_GATT_ROLE_CLIENT)
 576:.\Generated_Source\PSoC4/BLE_1_eventHandler.c ****         if(0u != (cyBle_eventHandlerFlag & CYBLE_AUTO_DISCOVERY))
 577:.\Generated_Source\PSoC4/BLE_1_eventHandler.c ****         {
 578:.\Generated_Source\PSoC4/BLE_1_eventHandler.c ****             switch(CyBle_GetClientState())
 579:.\Generated_Source\PSoC4/BLE_1_eventHandler.c ****             {
ARM GAS  C:\Users\mliha\AppData\Local\Temp\cc428Uxc.s 			page 15


 580:.\Generated_Source\PSoC4/BLE_1_eventHandler.c ****                 case CYBLE_CLIENT_STATE_SRVC_DISCOVERING:
 581:.\Generated_Source\PSoC4/BLE_1_eventHandler.c ****                     CyBle_ApplCallback(CYBLE_EVT_GATTC_SRVC_DISCOVERY_FAILED, NULL);
 582:.\Generated_Source\PSoC4/BLE_1_eventHandler.c ****                     break;
 583:.\Generated_Source\PSoC4/BLE_1_eventHandler.c ****                 case CYBLE_CLIENT_STATE_INCL_DISCOVERING:
 584:.\Generated_Source\PSoC4/BLE_1_eventHandler.c ****                     CyBle_ApplCallback(CYBLE_EVT_GATTC_INCL_DISCOVERY_FAILED, NULL);
 585:.\Generated_Source\PSoC4/BLE_1_eventHandler.c ****                     break;
 586:.\Generated_Source\PSoC4/BLE_1_eventHandler.c ****                 case CYBLE_CLIENT_STATE_CHAR_DISCOVERING:
 587:.\Generated_Source\PSoC4/BLE_1_eventHandler.c ****                     CyBle_ApplCallback(CYBLE_EVT_GATTC_CHAR_DISCOVERY_FAILED, NULL);
 588:.\Generated_Source\PSoC4/BLE_1_eventHandler.c ****                     break;
 589:.\Generated_Source\PSoC4/BLE_1_eventHandler.c ****                 case CYBLE_CLIENT_STATE_DESCR_DISCOVERING:
 590:.\Generated_Source\PSoC4/BLE_1_eventHandler.c ****                     CyBle_ApplCallback(CYBLE_EVT_GATTC_DESCR_DISCOVERY_FAILED, NULL);
 591:.\Generated_Source\PSoC4/BLE_1_eventHandler.c ****                     break;
 592:.\Generated_Source\PSoC4/BLE_1_eventHandler.c ****                 default:        /* Other states should not be set in Auto discovery mode */
 593:.\Generated_Source\PSoC4/BLE_1_eventHandler.c ****                     break;
 594:.\Generated_Source\PSoC4/BLE_1_eventHandler.c ****             }
 595:.\Generated_Source\PSoC4/BLE_1_eventHandler.c ****             cyBle_eventHandlerFlag &= (uint8)~CYBLE_AUTO_DISCOVERY;
 596:.\Generated_Source\PSoC4/BLE_1_eventHandler.c ****             CyBle_SetClientState(CYBLE_CLIENT_STATE_CONNECTED);
 597:.\Generated_Source\PSoC4/BLE_1_eventHandler.c ****         }
 598:.\Generated_Source\PSoC4/BLE_1_eventHandler.c ****     #endif /* CYBLE_GATT_ROLE_CLIENT */
 599:.\Generated_Source\PSoC4/BLE_1_eventHandler.c ****     #ifdef CYBLE_CPS_SERVER
 600:.\Generated_Source\PSoC4/BLE_1_eventHandler.c ****         CyBle_CpssTimeOutEventHandler();
 601:.\Generated_Source\PSoC4/BLE_1_eventHandler.c ****     #endif /* CYBLE_CPS_SERVER */
 602:.\Generated_Source\PSoC4/BLE_1_eventHandler.c ****     }
 603:.\Generated_Source\PSoC4/BLE_1_eventHandler.c ****     
 604:.\Generated_Source\PSoC4/BLE_1_eventHandler.c ****     /* Connection procedure timeout */
 605:.\Generated_Source\PSoC4/BLE_1_eventHandler.c ****     if(*eventParam == CYBLE_GENERIC_TO)
 606:.\Generated_Source\PSoC4/BLE_1_eventHandler.c ****     {
 607:.\Generated_Source\PSoC4/BLE_1_eventHandler.c ****     #if(CYBLE_GAP_ROLE_CENTRAL)
 608:.\Generated_Source\PSoC4/BLE_1_eventHandler.c ****         if(CYBLE_STATE_CONNECTING == CyBle_GetState())
 609:.\Generated_Source\PSoC4/BLE_1_eventHandler.c ****         {
 610:.\Generated_Source\PSoC4/BLE_1_eventHandler.c ****             (void)CyBle_GapcCancelDeviceConnection();
 611:.\Generated_Source\PSoC4/BLE_1_eventHandler.c ****         }
 612:.\Generated_Source\PSoC4/BLE_1_eventHandler.c ****     #endif /* CYBLE_GAP_ROLE_CENTRAL */
 613:.\Generated_Source\PSoC4/BLE_1_eventHandler.c ****     }
 614:.\Generated_Source\PSoC4/BLE_1_eventHandler.c **** }
 220              		.loc 1 614 0
 221 0008 BD46     		mov	sp, r7
 222 000a 02B0     		add	sp, sp, #8
 223              		@ sp needed
 224 000c 80BD     		pop	{r7, pc}
 225              		.cfi_endproc
 226              	.LFE5:
 227              		.size	CyBle_TimeOutEventHandler, .-CyBle_TimeOutEventHandler
 228              		.section	.text.CyBle_GattConnectReqHandler,"ax",%progbits
 229              		.align	2
 230              		.code	16
 231              		.thumb_func
 232              		.type	CyBle_GattConnectReqHandler, %function
 233              	CyBle_GattConnectReqHandler:
 234              	.LFB6:
 615:.\Generated_Source\PSoC4/BLE_1_eventHandler.c **** 
 616:.\Generated_Source\PSoC4/BLE_1_eventHandler.c **** 
 617:.\Generated_Source\PSoC4/BLE_1_eventHandler.c **** /****************************************************************************** 
 618:.\Generated_Source\PSoC4/BLE_1_eventHandler.c **** ##Function Name: CyBle_GattConnectReqHandler
 619:.\Generated_Source\PSoC4/BLE_1_eventHandler.c **** *******************************************************************************
 620:.\Generated_Source\PSoC4/BLE_1_eventHandler.c **** 
 621:.\Generated_Source\PSoC4/BLE_1_eventHandler.c **** Summary:
ARM GAS  C:\Users\mliha\AppData\Local\Temp\cc428Uxc.s 			page 16


 622:.\Generated_Source\PSoC4/BLE_1_eventHandler.c ****  Handles the GATT connect event from the BLE stack.
 623:.\Generated_Source\PSoC4/BLE_1_eventHandler.c **** 
 624:.\Generated_Source\PSoC4/BLE_1_eventHandler.c **** Parameters:
 625:.\Generated_Source\PSoC4/BLE_1_eventHandler.c ****  None
 626:.\Generated_Source\PSoC4/BLE_1_eventHandler.c **** 
 627:.\Generated_Source\PSoC4/BLE_1_eventHandler.c **** Return:
 628:.\Generated_Source\PSoC4/BLE_1_eventHandler.c ****  None
 629:.\Generated_Source\PSoC4/BLE_1_eventHandler.c **** 
 630:.\Generated_Source\PSoC4/BLE_1_eventHandler.c **** ******************************************************************************/
 631:.\Generated_Source\PSoC4/BLE_1_eventHandler.c **** static void CyBle_GattConnectReqHandler(void)
 632:.\Generated_Source\PSoC4/BLE_1_eventHandler.c **** {
 235              		.loc 1 632 0
 236              		.cfi_startproc
 237 0000 80B5     		push	{r7, lr}
 238              		.cfi_def_cfa_offset 8
 239              		.cfi_offset 7, -8
 240              		.cfi_offset 14, -4
 241 0002 00AF     		add	r7, sp, #0
 242              		.cfi_def_cfa_register 7
 633:.\Generated_Source\PSoC4/BLE_1_eventHandler.c ****     #ifdef CYBLE_CPS_SERVER
 634:.\Generated_Source\PSoC4/BLE_1_eventHandler.c ****         CyBle_CpssConnectEventHandler();
 635:.\Generated_Source\PSoC4/BLE_1_eventHandler.c ****     #endif /* CYBLE_CPS_SERVER */
 636:.\Generated_Source\PSoC4/BLE_1_eventHandler.c ****     
 637:.\Generated_Source\PSoC4/BLE_1_eventHandler.c ****     #ifdef CYBLE_CSCS_SERVER
 638:.\Generated_Source\PSoC4/BLE_1_eventHandler.c ****             CyBle_CscsInit();
 639:.\Generated_Source\PSoC4/BLE_1_eventHandler.c ****     #endif /* CYBLE_CSCS_SERVER */
 640:.\Generated_Source\PSoC4/BLE_1_eventHandler.c ****     
 641:.\Generated_Source\PSoC4/BLE_1_eventHandler.c ****     #ifdef CYBLE_LLS_SERVER
 642:.\Generated_Source\PSoC4/BLE_1_eventHandler.c ****         CyBle_LlssConnectEventHandler();
 643:.\Generated_Source\PSoC4/BLE_1_eventHandler.c ****     #endif /* CYBLE_LLS_SERVER */
 644:.\Generated_Source\PSoC4/BLE_1_eventHandler.c ****     
 645:.\Generated_Source\PSoC4/BLE_1_eventHandler.c ****     #ifdef CYBLE_HIDS_SERVER
 646:.\Generated_Source\PSoC4/BLE_1_eventHandler.c ****         CyBle_HidssOnDeviceConnected();
 647:.\Generated_Source\PSoC4/BLE_1_eventHandler.c ****     #endif /* CYBLE_HIDS_SERVER */
 648:.\Generated_Source\PSoC4/BLE_1_eventHandler.c **** 
 649:.\Generated_Source\PSoC4/BLE_1_eventHandler.c ****     #ifdef CYBLE_RSCS_SERVER
 650:.\Generated_Source\PSoC4/BLE_1_eventHandler.c ****             CyBle_RscsInit();
 651:.\Generated_Source\PSoC4/BLE_1_eventHandler.c ****     #endif /* CYBLE_RSCS_SERVER */
 652:.\Generated_Source\PSoC4/BLE_1_eventHandler.c **** }
 243              		.loc 1 652 0
 244 0004 BD46     		mov	sp, r7
 245              		@ sp needed
 246 0006 80BD     		pop	{r7, pc}
 247              		.cfi_endproc
 248              	.LFE6:
 249              		.size	CyBle_GattConnectReqHandler, .-CyBle_GattConnectReqHandler
 250              		.section	.text.CyBle_IsDeviceAddressValid,"ax",%progbits
 251              		.align	2
 252              		.code	16
 253              		.thumb_func
 254              		.type	CyBle_IsDeviceAddressValid, %function
 255              	CyBle_IsDeviceAddressValid:
 256              	.LFB7:
 653:.\Generated_Source\PSoC4/BLE_1_eventHandler.c **** 
 654:.\Generated_Source\PSoC4/BLE_1_eventHandler.c **** 
 655:.\Generated_Source\PSoC4/BLE_1_eventHandler.c **** #if (CYBLE_GATT_ROLE_SERVER || CYBLE_GATT_ROLE_CLIENT)
 656:.\Generated_Source\PSoC4/BLE_1_eventHandler.c **** 
ARM GAS  C:\Users\mliha\AppData\Local\Temp\cc428Uxc.s 			page 17


 657:.\Generated_Source\PSoC4/BLE_1_eventHandler.c **** /****************************************************************************** 
 658:.\Generated_Source\PSoC4/BLE_1_eventHandler.c **** ##Function Name: CyBle_IsDeviceAddressValid
 659:.\Generated_Source\PSoC4/BLE_1_eventHandler.c **** *******************************************************************************
 660:.\Generated_Source\PSoC4/BLE_1_eventHandler.c **** 
 661:.\Generated_Source\PSoC4/BLE_1_eventHandler.c **** Summary:
 662:.\Generated_Source\PSoC4/BLE_1_eventHandler.c ****  This function verifies that BLE public address has been programmed to SFLASH 
 663:.\Generated_Source\PSoC4/BLE_1_eventHandler.c ****  during manufacture.
 664:.\Generated_Source\PSoC4/BLE_1_eventHandler.c **** 
 665:.\Generated_Source\PSoC4/BLE_1_eventHandler.c **** Parameters:
 666:.\Generated_Source\PSoC4/BLE_1_eventHandler.c ****  CYBLE_GAP_BD_ADDR_T *sflashDeviceAddress: the pointer to the BD address of 
 667:.\Generated_Source\PSoC4/BLE_1_eventHandler.c ****                                            type CYBLE_GAP_BD_ADDR_T. 
 668:.\Generated_Source\PSoC4/BLE_1_eventHandler.c **** 
 669:.\Generated_Source\PSoC4/BLE_1_eventHandler.c **** Return:
 670:.\Generated_Source\PSoC4/BLE_1_eventHandler.c ****  Non zero value when a device address differs from the default SFLASH content.
 671:.\Generated_Source\PSoC4/BLE_1_eventHandler.c **** 
 672:.\Generated_Source\PSoC4/BLE_1_eventHandler.c **** ******************************************************************************/
 673:.\Generated_Source\PSoC4/BLE_1_eventHandler.c **** static uint8 CyBle_IsDeviceAddressValid(const CYBLE_GAP_BD_ADDR_T *sflashDeviceAddress)
 674:.\Generated_Source\PSoC4/BLE_1_eventHandler.c **** {
 257              		.loc 1 674 0
 258              		.cfi_startproc
 259 0000 80B5     		push	{r7, lr}
 260              		.cfi_def_cfa_offset 8
 261              		.cfi_offset 7, -8
 262              		.cfi_offset 14, -4
 263 0002 84B0     		sub	sp, sp, #16
 264              		.cfi_def_cfa_offset 24
 265 0004 00AF     		add	r7, sp, #0
 266              		.cfi_def_cfa_register 7
 267 0006 7860     		str	r0, [r7, #4]
 675:.\Generated_Source\PSoC4/BLE_1_eventHandler.c ****     uint8 i;
 676:.\Generated_Source\PSoC4/BLE_1_eventHandler.c ****     uint8 sflashAddressValid = 0u;
 268              		.loc 1 676 0
 269 0008 3B1C     		mov	r3, r7
 270 000a 0E33     		add	r3, r3, #14
 271 000c 0022     		mov	r2, #0
 272 000e 1A70     		strb	r2, [r3]
 677:.\Generated_Source\PSoC4/BLE_1_eventHandler.c ****     
 678:.\Generated_Source\PSoC4/BLE_1_eventHandler.c ****     if(sflashDeviceAddress -> type == CYBLE_GAP_ADDR_TYPE_PUBLIC)  
 273              		.loc 1 678 0
 274 0010 7B68     		ldr	r3, [r7, #4]
 275 0012 9B79     		ldrb	r3, [r3, #6]
 276 0014 002B     		cmp	r3, #0
 277 0016 1CD1     		bne	.L14
 679:.\Generated_Source\PSoC4/BLE_1_eventHandler.c ****     {
 680:.\Generated_Source\PSoC4/BLE_1_eventHandler.c ****         for(i = 0u; i < CYBLE_GAP_BD_ADDR_SIZE; i++)
 278              		.loc 1 680 0
 279 0018 3B1C     		mov	r3, r7
 280 001a 0F33     		add	r3, r3, #15
 281 001c 0022     		mov	r2, #0
 282 001e 1A70     		strb	r2, [r3]
 283 0020 12E0     		b	.L15
 284              	.L17:
 681:.\Generated_Source\PSoC4/BLE_1_eventHandler.c ****         {
 682:.\Generated_Source\PSoC4/BLE_1_eventHandler.c ****             if(sflashDeviceAddress->bdAddr[i] != 0u)
 285              		.loc 1 682 0
 286 0022 3B1C     		mov	r3, r7
 287 0024 0F33     		add	r3, r3, #15
ARM GAS  C:\Users\mliha\AppData\Local\Temp\cc428Uxc.s 			page 18


 288 0026 1B78     		ldrb	r3, [r3]
 289 0028 7A68     		ldr	r2, [r7, #4]
 290 002a D35C     		ldrb	r3, [r2, r3]
 291 002c 002B     		cmp	r3, #0
 292 002e 04D0     		beq	.L16
 683:.\Generated_Source\PSoC4/BLE_1_eventHandler.c ****             {
 684:.\Generated_Source\PSoC4/BLE_1_eventHandler.c ****                 sflashAddressValid = 1u;
 293              		.loc 1 684 0
 294 0030 3B1C     		mov	r3, r7
 295 0032 0E33     		add	r3, r3, #14
 296 0034 0122     		mov	r2, #1
 297 0036 1A70     		strb	r2, [r3]
 685:.\Generated_Source\PSoC4/BLE_1_eventHandler.c ****                 break;
 298              		.loc 1 685 0
 299 0038 0BE0     		b	.L14
 300              	.L16:
 680:.\Generated_Source\PSoC4/BLE_1_eventHandler.c ****         for(i = 0u; i < CYBLE_GAP_BD_ADDR_SIZE; i++)
 301              		.loc 1 680 0
 302 003a 3B1C     		mov	r3, r7
 303 003c 0F33     		add	r3, r3, #15
 304 003e 1A78     		ldrb	r2, [r3]
 305 0040 3B1C     		mov	r3, r7
 306 0042 0F33     		add	r3, r3, #15
 307 0044 0132     		add	r2, r2, #1
 308 0046 1A70     		strb	r2, [r3]
 309              	.L15:
 680:.\Generated_Source\PSoC4/BLE_1_eventHandler.c ****         for(i = 0u; i < CYBLE_GAP_BD_ADDR_SIZE; i++)
 310              		.loc 1 680 0 is_stmt 0 discriminator 1
 311 0048 3B1C     		mov	r3, r7
 312 004a 0F33     		add	r3, r3, #15
 313 004c 1B78     		ldrb	r3, [r3]
 314 004e 052B     		cmp	r3, #5
 315 0050 E7D9     		bls	.L17
 316              	.L14:
 686:.\Generated_Source\PSoC4/BLE_1_eventHandler.c ****             }
 687:.\Generated_Source\PSoC4/BLE_1_eventHandler.c ****         }
 688:.\Generated_Source\PSoC4/BLE_1_eventHandler.c ****     }
 689:.\Generated_Source\PSoC4/BLE_1_eventHandler.c ****     return (sflashAddressValid);
 317              		.loc 1 689 0 is_stmt 1
 318 0052 3B1C     		mov	r3, r7
 319 0054 0E33     		add	r3, r3, #14
 320 0056 1B78     		ldrb	r3, [r3]
 690:.\Generated_Source\PSoC4/BLE_1_eventHandler.c **** }
 321              		.loc 1 690 0
 322 0058 181C     		mov	r0, r3
 323 005a BD46     		mov	sp, r7
 324 005c 04B0     		add	sp, sp, #16
 325              		@ sp needed
 326 005e 80BD     		pop	{r7, pc}
 327              		.cfi_endproc
 328              	.LFE7:
 329              		.size	CyBle_IsDeviceAddressValid, .-CyBle_IsDeviceAddressValid
 330              		.section	.text.CyBle_L2Cap_ConnParamUpdateRspEventHandler,"ax",%progbits
 331              		.align	2
 332              		.code	16
 333              		.thumb_func
 334              		.type	CyBle_L2Cap_ConnParamUpdateRspEventHandler, %function
ARM GAS  C:\Users\mliha\AppData\Local\Temp\cc428Uxc.s 			page 19


 335              	CyBle_L2Cap_ConnParamUpdateRspEventHandler:
 336              	.LFB8:
 691:.\Generated_Source\PSoC4/BLE_1_eventHandler.c **** #endif /* (CYBLE_GATT_ROLE_SERVER || CYBLE_GATT_ROLE_CLIENT) */
 692:.\Generated_Source\PSoC4/BLE_1_eventHandler.c **** 
 693:.\Generated_Source\PSoC4/BLE_1_eventHandler.c **** 
 694:.\Generated_Source\PSoC4/BLE_1_eventHandler.c **** /****************************************************************************** 
 695:.\Generated_Source\PSoC4/BLE_1_eventHandler.c **** ##Function Name: CyBle_L2Cap_ConnParamUpdateRspHandler
 696:.\Generated_Source\PSoC4/BLE_1_eventHandler.c **** *******************************************************************************
 697:.\Generated_Source\PSoC4/BLE_1_eventHandler.c **** 
 698:.\Generated_Source\PSoC4/BLE_1_eventHandler.c **** Summary:
 699:.\Generated_Source\PSoC4/BLE_1_eventHandler.c ****  Handles the L2CAP connection parameter response event from
 700:.\Generated_Source\PSoC4/BLE_1_eventHandler.c ****  the BLE stack.
 701:.\Generated_Source\PSoC4/BLE_1_eventHandler.c **** 
 702:.\Generated_Source\PSoC4/BLE_1_eventHandler.c **** Parameters:
 703:.\Generated_Source\PSoC4/BLE_1_eventHandler.c ****  uint16 response:
 704:.\Generated_Source\PSoC4/BLE_1_eventHandler.c ****      * Accepted = 0x0000
 705:.\Generated_Source\PSoC4/BLE_1_eventHandler.c ****      * Rejected = 0x0001
 706:.\Generated_Source\PSoC4/BLE_1_eventHandler.c **** 
 707:.\Generated_Source\PSoC4/BLE_1_eventHandler.c **** Return:
 708:.\Generated_Source\PSoC4/BLE_1_eventHandler.c ****  None
 709:.\Generated_Source\PSoC4/BLE_1_eventHandler.c **** 
 710:.\Generated_Source\PSoC4/BLE_1_eventHandler.c **** ******************************************************************************/
 711:.\Generated_Source\PSoC4/BLE_1_eventHandler.c **** static void CyBle_L2Cap_ConnParamUpdateRspEventHandler(uint16 response)
 712:.\Generated_Source\PSoC4/BLE_1_eventHandler.c **** {
 337              		.loc 1 712 0
 338              		.cfi_startproc
 339 0000 80B5     		push	{r7, lr}
 340              		.cfi_def_cfa_offset 8
 341              		.cfi_offset 7, -8
 342              		.cfi_offset 14, -4
 343 0002 82B0     		sub	sp, sp, #8
 344              		.cfi_def_cfa_offset 16
 345 0004 00AF     		add	r7, sp, #0
 346              		.cfi_def_cfa_register 7
 347 0006 021C     		mov	r2, r0
 348 0008 BB1D     		add	r3, r7, #6
 349 000a 1A80     		strh	r2, [r3]
 713:.\Generated_Source\PSoC4/BLE_1_eventHandler.c ****     #ifdef CYBLE_CPS_SERVER
 714:.\Generated_Source\PSoC4/BLE_1_eventHandler.c ****         CyBle_CpssConnParamUpdateRspEventHandler(response);
 715:.\Generated_Source\PSoC4/BLE_1_eventHandler.c ****     #endif /* CYBLE_CPS_SERVER */
 716:.\Generated_Source\PSoC4/BLE_1_eventHandler.c ****     
 717:.\Generated_Source\PSoC4/BLE_1_eventHandler.c ****     /* Unreferenced variable warning workaround */
 718:.\Generated_Source\PSoC4/BLE_1_eventHandler.c ****     if(response != 0u)
 719:.\Generated_Source\PSoC4/BLE_1_eventHandler.c ****     {
 720:.\Generated_Source\PSoC4/BLE_1_eventHandler.c ****     }
 721:.\Generated_Source\PSoC4/BLE_1_eventHandler.c **** }
 350              		.loc 1 721 0
 351 000c BD46     		mov	sp, r7
 352 000e 02B0     		add	sp, sp, #8
 353              		@ sp needed
 354 0010 80BD     		pop	{r7, pc}
 355              		.cfi_endproc
 356              	.LFE8:
 357              		.size	CyBle_L2Cap_ConnParamUpdateRspEventHandler, .-CyBle_L2Cap_ConnParamUpdateRspEventHandler
 358 0012 C046     		.section	.text.CyBle_GapConnUpdateCompleteEventHandler,"ax",%progbits
 359              		.align	2
 360              		.code	16
ARM GAS  C:\Users\mliha\AppData\Local\Temp\cc428Uxc.s 			page 20


 361              		.thumb_func
 362              		.type	CyBle_GapConnUpdateCompleteEventHandler, %function
 363              	CyBle_GapConnUpdateCompleteEventHandler:
 364              	.LFB9:
 722:.\Generated_Source\PSoC4/BLE_1_eventHandler.c **** 
 723:.\Generated_Source\PSoC4/BLE_1_eventHandler.c **** 
 724:.\Generated_Source\PSoC4/BLE_1_eventHandler.c **** /****************************************************************************** 
 725:.\Generated_Source\PSoC4/BLE_1_eventHandler.c **** ##Function Name: CyBle_GapConnUpdateCompleteEventHandler
 726:.\Generated_Source\PSoC4/BLE_1_eventHandler.c **** *******************************************************************************
 727:.\Generated_Source\PSoC4/BLE_1_eventHandler.c **** 
 728:.\Generated_Source\PSoC4/BLE_1_eventHandler.c **** Summary:
 729:.\Generated_Source\PSoC4/BLE_1_eventHandler.c ****  Handles the CYBLE_EVT_GAP_CONNECTION_UPDATE_COMPLETE event from
 730:.\Generated_Source\PSoC4/BLE_1_eventHandler.c ****  the BLE stack.
 731:.\Generated_Source\PSoC4/BLE_1_eventHandler.c **** 
 732:.\Generated_Source\PSoC4/BLE_1_eventHandler.c **** Parameters:
 733:.\Generated_Source\PSoC4/BLE_1_eventHandler.c ****  *eventParam: The pointer to the data structure specified by the event.
 734:.\Generated_Source\PSoC4/BLE_1_eventHandler.c **** 
 735:.\Generated_Source\PSoC4/BLE_1_eventHandler.c **** Return:
 736:.\Generated_Source\PSoC4/BLE_1_eventHandler.c ****  None
 737:.\Generated_Source\PSoC4/BLE_1_eventHandler.c **** 
 738:.\Generated_Source\PSoC4/BLE_1_eventHandler.c **** ******************************************************************************/
 739:.\Generated_Source\PSoC4/BLE_1_eventHandler.c **** static void CyBle_GapConnUpdateCompleteEventHandler(const CYBLE_GAP_CONN_PARAM_UPDATED_IN_CONTROLLE
 740:.\Generated_Source\PSoC4/BLE_1_eventHandler.c **** {
 365              		.loc 1 740 0
 366              		.cfi_startproc
 367 0000 80B5     		push	{r7, lr}
 368              		.cfi_def_cfa_offset 8
 369              		.cfi_offset 7, -8
 370              		.cfi_offset 14, -4
 371 0002 82B0     		sub	sp, sp, #8
 372              		.cfi_def_cfa_offset 16
 373 0004 00AF     		add	r7, sp, #0
 374              		.cfi_def_cfa_register 7
 375 0006 7860     		str	r0, [r7, #4]
 741:.\Generated_Source\PSoC4/BLE_1_eventHandler.c ****     #ifdef CYBLE_CPS_SERVER
 742:.\Generated_Source\PSoC4/BLE_1_eventHandler.c ****         CyBle_CpssConnUpdateCompleteEventHandler(eventParam);
 743:.\Generated_Source\PSoC4/BLE_1_eventHandler.c ****     #endif /* CYBLE_CPS_SERVER */
 744:.\Generated_Source\PSoC4/BLE_1_eventHandler.c ****     
 745:.\Generated_Source\PSoC4/BLE_1_eventHandler.c ****     /* Unreferenced variable warning workaround */
 746:.\Generated_Source\PSoC4/BLE_1_eventHandler.c ****     if(eventParam != 0u)
 747:.\Generated_Source\PSoC4/BLE_1_eventHandler.c ****     {
 748:.\Generated_Source\PSoC4/BLE_1_eventHandler.c ****     }
 749:.\Generated_Source\PSoC4/BLE_1_eventHandler.c **** }
 376              		.loc 1 749 0
 377 0008 BD46     		mov	sp, r7
 378 000a 02B0     		add	sp, sp, #8
 379              		@ sp needed
 380 000c 80BD     		pop	{r7, pc}
 381              		.cfi_endproc
 382              	.LFE9:
 383              		.size	CyBle_GapConnUpdateCompleteEventHandler, .-CyBle_GapConnUpdateCompleteEventHandler
 384              		.section	.text.CyBle_EventHandler,"ax",%progbits
 385              		.align	2
 386              		.global	CyBle_EventHandler
 387              		.code	16
 388              		.thumb_func
 389              		.type	CyBle_EventHandler, %function
ARM GAS  C:\Users\mliha\AppData\Local\Temp\cc428Uxc.s 			page 21


 390              	CyBle_EventHandler:
 391              	.LFB10:
 750:.\Generated_Source\PSoC4/BLE_1_eventHandler.c **** 
 751:.\Generated_Source\PSoC4/BLE_1_eventHandler.c **** 
 752:.\Generated_Source\PSoC4/BLE_1_eventHandler.c **** /****************************************************************************** 
 753:.\Generated_Source\PSoC4/BLE_1_eventHandler.c **** ##Function Name: CyBle_EventHandler
 754:.\Generated_Source\PSoC4/BLE_1_eventHandler.c **** *******************************************************************************
 755:.\Generated_Source\PSoC4/BLE_1_eventHandler.c **** 
 756:.\Generated_Source\PSoC4/BLE_1_eventHandler.c **** Summary:
 757:.\Generated_Source\PSoC4/BLE_1_eventHandler.c ****  Handles the events from the BLE stack
 758:.\Generated_Source\PSoC4/BLE_1_eventHandler.c **** 
 759:.\Generated_Source\PSoC4/BLE_1_eventHandler.c **** Parameters:
 760:.\Generated_Source\PSoC4/BLE_1_eventHandler.c ****  eventCode:    the event code
 761:.\Generated_Source\PSoC4/BLE_1_eventHandler.c ****  *eventParam:  the event parameters
 762:.\Generated_Source\PSoC4/BLE_1_eventHandler.c **** 
 763:.\Generated_Source\PSoC4/BLE_1_eventHandler.c **** Return:
 764:.\Generated_Source\PSoC4/BLE_1_eventHandler.c ****  None.
 765:.\Generated_Source\PSoC4/BLE_1_eventHandler.c **** 
 766:.\Generated_Source\PSoC4/BLE_1_eventHandler.c **** ******************************************************************************/
 767:.\Generated_Source\PSoC4/BLE_1_eventHandler.c **** void CyBle_EventHandler(uint8 eventCode, void *eventParam)
 768:.\Generated_Source\PSoC4/BLE_1_eventHandler.c **** {
 392              		.loc 1 768 0
 393              		.cfi_startproc
 394 0000 80B5     		push	{r7, lr}
 395              		.cfi_def_cfa_offset 8
 396              		.cfi_offset 7, -8
 397              		.cfi_offset 14, -4
 398 0002 84B0     		sub	sp, sp, #16
 399              		.cfi_def_cfa_offset 24
 400 0004 00AF     		add	r7, sp, #0
 401              		.cfi_def_cfa_register 7
 402 0006 021C     		mov	r2, r0
 403 0008 3960     		str	r1, [r7]
 404 000a FB1D     		add	r3, r7, #7
 405 000c 1A70     		strb	r2, [r3]
 769:.\Generated_Source\PSoC4/BLE_1_eventHandler.c ****     cyBle_eventHandlerFlag |= CYBLE_CALLBACK;
 406              		.loc 1 769 0
 407 000e 904B     		ldr	r3, .L51
 408 0010 1B78     		ldrb	r3, [r3]
 409 0012 DBB2     		uxtb	r3, r3
 410 0014 0122     		mov	r2, #1
 411 0016 1343     		orr	r3, r2
 412 0018 DAB2     		uxtb	r2, r3
 413 001a 8D4B     		ldr	r3, .L51
 414 001c 1A70     		strb	r2, [r3]
 770:.\Generated_Source\PSoC4/BLE_1_eventHandler.c **** 
 771:.\Generated_Source\PSoC4/BLE_1_eventHandler.c ****     /* Common Profile event handling */
 772:.\Generated_Source\PSoC4/BLE_1_eventHandler.c ****     switch(eventCode)
 415              		.loc 1 772 0
 416 001e FB1D     		add	r3, r7, #7
 417 0020 1B78     		ldrb	r3, [r3]
 418 0022 712B     		cmp	r3, #113
 419 0024 00D9     		bls	.LCB347
 420 0026 F7E0     		b	.L50	@long jump
 421              	.LCB347:
 422 0028 9A00     		lsl	r2, r3, #2
 423 002a 8A4B     		ldr	r3, .L51+4
ARM GAS  C:\Users\mliha\AppData\Local\Temp\cc428Uxc.s 			page 22


 424 002c D318     		add	r3, r2, r3
 425 002e 1B68     		ldr	r3, [r3]
 426 0030 9F46     		mov	pc, r3
 427              		.section	.rodata
 428              		.align	2
 429              	.L24:
 430 0000 18020000 		.word	.L50
 431 0004 32000000 		.word	.L23
 432 0008 A8000000 		.word	.L25
 433 000c 18020000 		.word	.L50
 434 0010 18020000 		.word	.L50
 435 0014 B2000000 		.word	.L26
 436 0018 18020000 		.word	.L50
 437 001c 18020000 		.word	.L50
 438 0020 18020000 		.word	.L50
 439 0024 18020000 		.word	.L50
 440 0028 18020000 		.word	.L50
 441 002c 18020000 		.word	.L50
 442 0030 18020000 		.word	.L50
 443 0034 18020000 		.word	.L50
 444 0038 18020000 		.word	.L50
 445 003c 18020000 		.word	.L50
 446 0040 18020000 		.word	.L50
 447 0044 18020000 		.word	.L50
 448 0048 18020000 		.word	.L50
 449 004c 18020000 		.word	.L50
 450 0050 18020000 		.word	.L50
 451 0054 18020000 		.word	.L50
 452 0058 18020000 		.word	.L50
 453 005c 18020000 		.word	.L50
 454 0060 18020000 		.word	.L50
 455 0064 18020000 		.word	.L50
 456 0068 18020000 		.word	.L50
 457 006c 18020000 		.word	.L50
 458 0070 18020000 		.word	.L50
 459 0074 18020000 		.word	.L50
 460 0078 18020000 		.word	.L50
 461 007c 18020000 		.word	.L50
 462 0080 18020000 		.word	.L50
 463 0084 BC000000 		.word	.L27
 464 0088 18020000 		.word	.L50
 465 008c 18020000 		.word	.L50
 466 0090 18020000 		.word	.L50
 467 0094 18020000 		.word	.L50
 468 0098 0C010000 		.word	.L28
 469 009c F4000000 		.word	.L29
 470 00a0 04010000 		.word	.L30
 471 00a4 18020000 		.word	.L50
 472 00a8 EA000000 		.word	.L31
 473 00ac 18020000 		.word	.L50
 474 00b0 18020000 		.word	.L50
 475 00b4 18020000 		.word	.L50
 476 00b8 18020000 		.word	.L50
 477 00bc 18020000 		.word	.L50
 478 00c0 18020000 		.word	.L50
 479 00c4 18020000 		.word	.L50
 480 00c8 18020000 		.word	.L50
ARM GAS  C:\Users\mliha\AppData\Local\Temp\cc428Uxc.s 			page 23


 481 00cc 18020000 		.word	.L50
 482 00d0 18020000 		.word	.L50
 483 00d4 18020000 		.word	.L50
 484 00d8 18020000 		.word	.L50
 485 00dc 18020000 		.word	.L50
 486 00e0 18020000 		.word	.L50
 487 00e4 18020000 		.word	.L50
 488 00e8 18020000 		.word	.L50
 489 00ec 18020000 		.word	.L50
 490 00f0 18020000 		.word	.L50
 491 00f4 18020000 		.word	.L50
 492 00f8 18020000 		.word	.L50
 493 00fc 18020000 		.word	.L50
 494 0100 18020000 		.word	.L50
 495 0104 8C010000 		.word	.L32
 496 0108 C2010000 		.word	.L33
 497 010c C8010000 		.word	.L34
 498 0110 18020000 		.word	.L50
 499 0114 18020000 		.word	.L50
 500 0118 18020000 		.word	.L50
 501 011c 18020000 		.word	.L50
 502 0120 18020000 		.word	.L50
 503 0124 18020000 		.word	.L50
 504 0128 18020000 		.word	.L50
 505 012c 18020000 		.word	.L50
 506 0130 04020000 		.word	.L35
 507 0134 18020000 		.word	.L50
 508 0138 18020000 		.word	.L50
 509 013c 18020000 		.word	.L50
 510 0140 18020000 		.word	.L50
 511 0144 18020000 		.word	.L50
 512 0148 18020000 		.word	.L50
 513 014c 18020000 		.word	.L50
 514 0150 0E020000 		.word	.L37
 515 0154 18020000 		.word	.L50
 516 0158 18020000 		.word	.L50
 517 015c 18020000 		.word	.L50
 518 0160 18020000 		.word	.L50
 519 0164 18020000 		.word	.L50
 520 0168 18020000 		.word	.L50
 521 016c 18020000 		.word	.L50
 522 0170 18020000 		.word	.L50
 523 0174 18020000 		.word	.L50
 524 0178 18020000 		.word	.L50
 525 017c 18020000 		.word	.L50
 526 0180 18020000 		.word	.L50
 527 0184 18020000 		.word	.L50
 528 0188 18020000 		.word	.L50
 529 018c 18020000 		.word	.L50
 530 0190 18020000 		.word	.L50
 531 0194 18020000 		.word	.L50
 532 0198 18020000 		.word	.L50
 533 019c 18020000 		.word	.L50
 534 01a0 18020000 		.word	.L50
 535 01a4 18020000 		.word	.L50
 536 01a8 18020000 		.word	.L50
 537 01ac 18020000 		.word	.L50
ARM GAS  C:\Users\mliha\AppData\Local\Temp\cc428Uxc.s 			page 24


 538 01b0 18020000 		.word	.L50
 539 01b4 18020000 		.word	.L50
 540 01b8 18020000 		.word	.L50
 541 01bc 18020000 		.word	.L50
 542 01c0 18020000 		.word	.L50
 543 01c4 80010000 		.word	.L38
 544              		.section	.text.CyBle_EventHandler
 545              	.L23:
 546              	.LBB3:
 773:.\Generated_Source\PSoC4/BLE_1_eventHandler.c ****     {
 774:.\Generated_Source\PSoC4/BLE_1_eventHandler.c ****         /**********************************************************
 775:.\Generated_Source\PSoC4/BLE_1_eventHandler.c ****         ##General events
 776:.\Generated_Source\PSoC4/BLE_1_eventHandler.c ****         ***********************************************************/
 777:.\Generated_Source\PSoC4/BLE_1_eventHandler.c ****         case CYBLE_EVT_STACK_ON:
 778:.\Generated_Source\PSoC4/BLE_1_eventHandler.c ****         #if(CYBLE_MODE_PROFILE)
 779:.\Generated_Source\PSoC4/BLE_1_eventHandler.c ****         {
 780:.\Generated_Source\PSoC4/BLE_1_eventHandler.c ****             CYBLE_BLESS_PWR_IN_DB_T bleSsPowerLevel;
 781:.\Generated_Source\PSoC4/BLE_1_eventHandler.c ****             
 782:.\Generated_Source\PSoC4/BLE_1_eventHandler.c ****             /* Set Tx Power Level for advertising and connection channels */
 783:.\Generated_Source\PSoC4/BLE_1_eventHandler.c ****             bleSsPowerLevel.blePwrLevelInDbm = CYBLE_TX_POWER_LEVEL;
 547              		.loc 1 783 0
 548 0032 3B1C     		mov	r3, r7
 549 0034 0C33     		add	r3, r3, #12
 550 0036 0822     		mov	r2, #8
 551 0038 1A70     		strb	r2, [r3]
 784:.\Generated_Source\PSoC4/BLE_1_eventHandler.c ****             bleSsPowerLevel.bleSsChId = CYBLE_LL_ADV_CH_TYPE;
 552              		.loc 1 784 0
 553 003a 3B1C     		mov	r3, r7
 554 003c 0C33     		add	r3, r3, #12
 555 003e 0022     		mov	r2, #0
 556 0040 5A70     		strb	r2, [r3, #1]
 785:.\Generated_Source\PSoC4/BLE_1_eventHandler.c ****             (void) CyBle_SetTxPowerLevel (&bleSsPowerLevel);
 557              		.loc 1 785 0
 558 0042 3B1C     		mov	r3, r7
 559 0044 0C33     		add	r3, r3, #12
 560 0046 181C     		mov	r0, r3
 561 0048 FFF7FEFF 		bl	CyBle_SetTxPowerLevel
 786:.\Generated_Source\PSoC4/BLE_1_eventHandler.c ****             bleSsPowerLevel.bleSsChId = CYBLE_LL_CONN_CH_TYPE;
 562              		.loc 1 786 0
 563 004c 3B1C     		mov	r3, r7
 564 004e 0C33     		add	r3, r3, #12
 565 0050 0122     		mov	r2, #1
 566 0052 5A70     		strb	r2, [r3, #1]
 787:.\Generated_Source\PSoC4/BLE_1_eventHandler.c ****             (void) CyBle_SetTxPowerLevel (&bleSsPowerLevel);
 567              		.loc 1 787 0
 568 0054 3B1C     		mov	r3, r7
 569 0056 0C33     		add	r3, r3, #12
 570 0058 181C     		mov	r0, r3
 571 005a FFF7FEFF 		bl	CyBle_SetTxPowerLevel
 572              	.LBE3:
 788:.\Generated_Source\PSoC4/BLE_1_eventHandler.c ****         }
 789:.\Generated_Source\PSoC4/BLE_1_eventHandler.c ****         #endif /* CYBLE_MODE_PROFILE */
 790:.\Generated_Source\PSoC4/BLE_1_eventHandler.c ****         #if (CYBLE_GATT_ROLE_SERVER || CYBLE_GATT_ROLE_CLIENT)
 791:.\Generated_Source\PSoC4/BLE_1_eventHandler.c ****             /* Set device Address  */
 792:.\Generated_Source\PSoC4/BLE_1_eventHandler.c ****             if(CyBle_IsDeviceAddressValid(cyBle_sflashDeviceAddress) != 0u)
 573              		.loc 1 792 0
 574 005e 7E4B     		ldr	r3, .L51+8
ARM GAS  C:\Users\mliha\AppData\Local\Temp\cc428Uxc.s 			page 25


 575 0060 1B68     		ldr	r3, [r3]
 576 0062 181C     		mov	r0, r3
 577 0064 FFF7FEFF 		bl	CyBle_IsDeviceAddressValid
 578 0068 031C     		mov	r3, r0
 579 006a 002B     		cmp	r3, #0
 580 006c 05D0     		beq	.L39
 793:.\Generated_Source\PSoC4/BLE_1_eventHandler.c ****             {
 794:.\Generated_Source\PSoC4/BLE_1_eventHandler.c ****                 (void) CyBle_SetDeviceAddress(cyBle_sflashDeviceAddress);
 581              		.loc 1 794 0
 582 006e 7A4B     		ldr	r3, .L51+8
 583 0070 1B68     		ldr	r3, [r3]
 584 0072 181C     		mov	r0, r3
 585 0074 FFF7FEFF 		bl	CyBle_SetDeviceAddress
 586 0078 0FE0     		b	.L40
 587              	.L39:
 795:.\Generated_Source\PSoC4/BLE_1_eventHandler.c ****             }
 796:.\Generated_Source\PSoC4/BLE_1_eventHandler.c ****             else
 797:.\Generated_Source\PSoC4/BLE_1_eventHandler.c ****             {
 798:.\Generated_Source\PSoC4/BLE_1_eventHandler.c ****             #if (SILICON_GENERATED_DEVICE_ADDRESS != 0u)
 799:.\Generated_Source\PSoC4/BLE_1_eventHandler.c ****                 cyBle_deviceAddress.bdAddr[0] = CYBLE_SFLASH_DIE_X_REG;
 588              		.loc 1 799 0
 589 007a 784B     		ldr	r3, .L51+12
 590 007c 1A78     		ldrb	r2, [r3]
 591 007e 784B     		ldr	r3, .L51+16
 592 0080 1A70     		strb	r2, [r3]
 800:.\Generated_Source\PSoC4/BLE_1_eventHandler.c ****                 cyBle_deviceAddress.bdAddr[1] = CYBLE_SFLASH_DIE_Y_REG;
 593              		.loc 1 800 0
 594 0082 784B     		ldr	r3, .L51+20
 595 0084 1A78     		ldrb	r2, [r3]
 596 0086 764B     		ldr	r3, .L51+16
 597 0088 5A70     		strb	r2, [r3, #1]
 801:.\Generated_Source\PSoC4/BLE_1_eventHandler.c ****                 cyBle_deviceAddress.bdAddr[2] = CYBLE_SFLASH_DIE_WAFER_REG;
 598              		.loc 1 801 0
 599 008a 774B     		ldr	r3, .L51+24
 600 008c 1A78     		ldrb	r2, [r3]
 601 008e 744B     		ldr	r3, .L51+16
 602 0090 9A70     		strb	r2, [r3, #2]
 802:.\Generated_Source\PSoC4/BLE_1_eventHandler.c ****             #endif /* SILICON_GENERATED_DEVICE_ADDRESS != 0u */
 803:.\Generated_Source\PSoC4/BLE_1_eventHandler.c ****                 (void) CyBle_SetDeviceAddress(&cyBle_deviceAddress);
 603              		.loc 1 803 0
 604 0092 734B     		ldr	r3, .L51+16
 605 0094 181C     		mov	r0, r3
 606 0096 FFF7FEFF 		bl	CyBle_SetDeviceAddress
 607              	.L40:
 804:.\Generated_Source\PSoC4/BLE_1_eventHandler.c ****             }
 805:.\Generated_Source\PSoC4/BLE_1_eventHandler.c ****             /* Set device IO Capability  */
 806:.\Generated_Source\PSoC4/BLE_1_eventHandler.c ****             (void) CyBle_GapSetIoCap(CYBLE_IO_CAPABILITY);    
 608              		.loc 1 806 0
 609 009a 0320     		mov	r0, #3
 610 009c FFF7FEFF 		bl	CyBle_GapSetIoCap
 807:.\Generated_Source\PSoC4/BLE_1_eventHandler.c ****         #endif /* CYBLE_GATT_ROLE_SERVER || CYBLE_GATT_ROLE_CLIENT */
 808:.\Generated_Source\PSoC4/BLE_1_eventHandler.c ****             CyBle_SetState(CYBLE_STATE_DISCONNECTED);
 611              		.loc 1 808 0
 612 00a0 724B     		ldr	r3, .L51+28
 613 00a2 0422     		mov	r2, #4
 614 00a4 1A70     		strb	r2, [r3]
 809:.\Generated_Source\PSoC4/BLE_1_eventHandler.c ****             break;
ARM GAS  C:\Users\mliha\AppData\Local\Temp\cc428Uxc.s 			page 26


 615              		.loc 1 809 0
 616 00a6 B8E0     		b	.L41
 617              	.L25:
 810:.\Generated_Source\PSoC4/BLE_1_eventHandler.c ****         case CYBLE_EVT_TIMEOUT:
 811:.\Generated_Source\PSoC4/BLE_1_eventHandler.c ****             CyBle_TimeOutEventHandler((CYBLE_TO_REASON_CODE_T *)eventParam);
 618              		.loc 1 811 0
 619 00a8 3B68     		ldr	r3, [r7]
 620 00aa 181C     		mov	r0, r3
 621 00ac FFF7FEFF 		bl	CyBle_TimeOutEventHandler
 812:.\Generated_Source\PSoC4/BLE_1_eventHandler.c ****             break;
 622              		.loc 1 812 0
 623 00b0 B3E0     		b	.L41
 624              	.L26:
 813:.\Generated_Source\PSoC4/BLE_1_eventHandler.c ****     	case CYBLE_EVT_STACK_BUSY_STATUS:
 814:.\Generated_Source\PSoC4/BLE_1_eventHandler.c ****             cyBle_busStatus = *(uint8 *)eventParam;
 625              		.loc 1 814 0
 626 00b2 3B68     		ldr	r3, [r7]
 627 00b4 1A78     		ldrb	r2, [r3]
 628 00b6 6E4B     		ldr	r3, .L51+32
 629 00b8 1A70     		strb	r2, [r3]
 815:.\Generated_Source\PSoC4/BLE_1_eventHandler.c ****             break;
 630              		.loc 1 815 0
 631 00ba AEE0     		b	.L41
 632              	.L27:
 816:.\Generated_Source\PSoC4/BLE_1_eventHandler.c **** 
 817:.\Generated_Source\PSoC4/BLE_1_eventHandler.c ****         /**********************************************************
 818:.\Generated_Source\PSoC4/BLE_1_eventHandler.c ****         ##GAP events
 819:.\Generated_Source\PSoC4/BLE_1_eventHandler.c ****         ***********************************************************/
 820:.\Generated_Source\PSoC4/BLE_1_eventHandler.c ****         case CYBLE_EVT_GAP_AUTH_REQ:
 821:.\Generated_Source\PSoC4/BLE_1_eventHandler.c ****         #if(CYBLE_MODE_PROFILE)
 822:.\Generated_Source\PSoC4/BLE_1_eventHandler.c ****             if(0u == (cyBle_eventHandlerFlag & CYBLE_DISABLE_AUTOMATIC_AUTH))
 633              		.loc 1 822 0
 634 00bc 644B     		ldr	r3, .L51
 635 00be 1B78     		ldrb	r3, [r3]
 636 00c0 DBB2     		uxtb	r3, r3
 637 00c2 1A1C     		mov	r2, r3
 638 00c4 2023     		mov	r3, #32
 639 00c6 1340     		and	r3, r2
 640 00c8 0ED1     		bne	.L42
 823:.\Generated_Source\PSoC4/BLE_1_eventHandler.c ****             {
 824:.\Generated_Source\PSoC4/BLE_1_eventHandler.c ****                 /* If the responding device does not support pairing then the responding 
 825:.\Generated_Source\PSoC4/BLE_1_eventHandler.c ****                    device shall respond using the Pairing Failed message with the error 
 826:.\Generated_Source\PSoC4/BLE_1_eventHandler.c ****                    code "Pairing Not Supported" otherwise it responds with a Pairing 
 827:.\Generated_Source\PSoC4/BLE_1_eventHandler.c ****                    Response message.
 828:.\Generated_Source\PSoC4/BLE_1_eventHandler.c ****                 */
 829:.\Generated_Source\PSoC4/BLE_1_eventHandler.c ****                 if(cyBle_authInfo.security == (CYBLE_GAP_SEC_MODE_1 | CYBLE_GAP_SEC_LEVEL_1))
 641              		.loc 1 829 0
 642 00ca 6A4B     		ldr	r3, .L51+36
 643 00cc 1B78     		ldrb	r3, [r3]
 644 00ce 102B     		cmp	r3, #16
 645 00d0 02D1     		bne	.L43
 830:.\Generated_Source\PSoC4/BLE_1_eventHandler.c ****                 {
 831:.\Generated_Source\PSoC4/BLE_1_eventHandler.c ****                     cyBle_authInfo.authErr = CYBLE_GAP_AUTH_ERROR_PAIRING_NOT_SUPPORTED;
 646              		.loc 1 831 0
 647 00d2 684B     		ldr	r3, .L51+36
 648 00d4 0522     		mov	r2, #5
 649 00d6 DA70     		strb	r2, [r3, #3]
ARM GAS  C:\Users\mliha\AppData\Local\Temp\cc428Uxc.s 			page 27


 650              	.L43:
 832:.\Generated_Source\PSoC4/BLE_1_eventHandler.c ****                 }    
 833:.\Generated_Source\PSoC4/BLE_1_eventHandler.c ****             #if(CYBLE_GAP_ROLE_PERIPHERAL)
 834:.\Generated_Source\PSoC4/BLE_1_eventHandler.c ****                 (void)CyBle_GappAuthReqReply(cyBle_connHandle.bdHandle, &cyBle_authInfo);
 651              		.loc 1 834 0
 652 00d8 674B     		ldr	r3, .L51+40
 653 00da 1A78     		ldrb	r2, [r3]
 654 00dc 654B     		ldr	r3, .L51+36
 655 00de 101C     		mov	r0, r2
 656 00e0 191C     		mov	r1, r3
 657 00e2 FFF7FEFF 		bl	CyBle_GappAuthReqReply
 835:.\Generated_Source\PSoC4/BLE_1_eventHandler.c ****             #endif /* CYBLE_GAP_ROLE_PERIPHERAL */
 836:.\Generated_Source\PSoC4/BLE_1_eventHandler.c ****             #if (CYBLE_GAP_ROLE_CENTRAL)
 837:.\Generated_Source\PSoC4/BLE_1_eventHandler.c ****                 (void)CyBle_GapAuthReq(cyBle_connHandle.bdHandle, &cyBle_authInfo);
 838:.\Generated_Source\PSoC4/BLE_1_eventHandler.c ****             #endif /* CYBLE_GAP_ROLE_CENTRAL */
 839:.\Generated_Source\PSoC4/BLE_1_eventHandler.c ****             }
 840:.\Generated_Source\PSoC4/BLE_1_eventHandler.c ****         #endif /* CYBLE_MODE_PROFILE */
 841:.\Generated_Source\PSoC4/BLE_1_eventHandler.c ****             break;
 658              		.loc 1 841 0
 659 00e6 98E0     		b	.L41
 660              	.L42:
 661 00e8 97E0     		b	.L41
 662              	.L31:
 842:.\Generated_Source\PSoC4/BLE_1_eventHandler.c **** 
 843:.\Generated_Source\PSoC4/BLE_1_eventHandler.c ****         case CYBLE_EVT_GAP_CONNECTION_UPDATE_COMPLETE:
 844:.\Generated_Source\PSoC4/BLE_1_eventHandler.c ****             CyBle_GapConnUpdateCompleteEventHandler((const CYBLE_GAP_CONN_PARAM_UPDATED_IN_CONTROLL
 663              		.loc 1 844 0
 664 00ea 3B68     		ldr	r3, [r7]
 665 00ec 181C     		mov	r0, r3
 666 00ee FFF7FEFF 		bl	CyBle_GapConnUpdateCompleteEventHandler
 845:.\Generated_Source\PSoC4/BLE_1_eventHandler.c ****             break;
 667              		.loc 1 845 0
 668 00f2 92E0     		b	.L41
 669              	.L29:
 846:.\Generated_Source\PSoC4/BLE_1_eventHandler.c ****         case CYBLE_EVT_GAP_DEVICE_CONNECTED:
 847:.\Generated_Source\PSoC4/BLE_1_eventHandler.c ****             CyBle_GapConnUpdateCompleteEventHandler((const CYBLE_GAP_CONN_PARAM_UPDATED_IN_CONTROLL
 670              		.loc 1 847 0
 671 00f4 3B68     		ldr	r3, [r7]
 672 00f6 181C     		mov	r0, r3
 673 00f8 FFF7FEFF 		bl	CyBle_GapConnUpdateCompleteEventHandler
 848:.\Generated_Source\PSoC4/BLE_1_eventHandler.c ****             #if(CYBLE_GAP_ROLE_CENTRAL)
 849:.\Generated_Source\PSoC4/BLE_1_eventHandler.c ****                 if(cyBle_connectingTimeout != 0u)
 850:.\Generated_Source\PSoC4/BLE_1_eventHandler.c ****                 {
 851:.\Generated_Source\PSoC4/BLE_1_eventHandler.c ****                    (void)CyBle_StopTimer();
 852:.\Generated_Source\PSoC4/BLE_1_eventHandler.c ****                 }
 853:.\Generated_Source\PSoC4/BLE_1_eventHandler.c ****             #endif /* CYBLE_GAP_ROLE_CENTRAL */
 854:.\Generated_Source\PSoC4/BLE_1_eventHandler.c ****             CyBle_SetState(CYBLE_STATE_CONNECTED);
 674              		.loc 1 854 0
 675 00fc 5B4B     		ldr	r3, .L51+28
 676 00fe 0222     		mov	r2, #2
 677 0100 1A70     		strb	r2, [r3]
 855:.\Generated_Source\PSoC4/BLE_1_eventHandler.c ****             break;
 678              		.loc 1 855 0
 679 0102 8AE0     		b	.L41
 680              	.L30:
 856:.\Generated_Source\PSoC4/BLE_1_eventHandler.c **** 
 857:.\Generated_Source\PSoC4/BLE_1_eventHandler.c ****         case CYBLE_EVT_GAP_DEVICE_DISCONNECTED:
ARM GAS  C:\Users\mliha\AppData\Local\Temp\cc428Uxc.s 			page 28


 858:.\Generated_Source\PSoC4/BLE_1_eventHandler.c ****             CyBle_SetState(CYBLE_STATE_DISCONNECTED);
 681              		.loc 1 858 0
 682 0104 594B     		ldr	r3, .L51+28
 683 0106 0422     		mov	r2, #4
 684 0108 1A70     		strb	r2, [r3]
 859:.\Generated_Source\PSoC4/BLE_1_eventHandler.c ****             break;
 685              		.loc 1 859 0
 686 010a 86E0     		b	.L41
 687              	.L28:
 860:.\Generated_Source\PSoC4/BLE_1_eventHandler.c ****             
 861:.\Generated_Source\PSoC4/BLE_1_eventHandler.c ****         #if(CYBLE_GAP_ROLE_PERIPHERAL || CYBLE_GAP_ROLE_BROADCASTER)
 862:.\Generated_Source\PSoC4/BLE_1_eventHandler.c ****         case CYBLE_EVT_GAPP_ADVERTISEMENT_START_STOP:
 863:.\Generated_Source\PSoC4/BLE_1_eventHandler.c ****             
 864:.\Generated_Source\PSoC4/BLE_1_eventHandler.c ****         #ifdef CYBLE_CPS_SERVER
 865:.\Generated_Source\PSoC4/BLE_1_eventHandler.c ****             #if(CYBLE_GAP_ROLE_BROADCASTER)
 866:.\Generated_Source\PSoC4/BLE_1_eventHandler.c ****                 CyBle_CpssAdvertisementStartStopEventHandler();
 867:.\Generated_Source\PSoC4/BLE_1_eventHandler.c ****             #endif /* CYBLE_GAP_ROLE_BROADCASTER */
 868:.\Generated_Source\PSoC4/BLE_1_eventHandler.c ****         #endif /* CYBLE_CPS_SERVER */
 869:.\Generated_Source\PSoC4/BLE_1_eventHandler.c ****             
 870:.\Generated_Source\PSoC4/BLE_1_eventHandler.c ****             if((CYBLE_STATE_CONNECTED != CyBle_GetState()) && ((cyBle_eventHandlerFlag & CYBLE_CALL
 688              		.loc 1 870 0
 689 010c 574B     		ldr	r3, .L51+28
 690 010e 1B78     		ldrb	r3, [r3]
 691 0110 022B     		cmp	r3, #2
 692 0112 34D0     		beq	.L44
 693              		.loc 1 870 0 is_stmt 0 discriminator 1
 694 0114 4E4B     		ldr	r3, .L51
 695 0116 1B78     		ldrb	r3, [r3]
 696 0118 DBB2     		uxtb	r3, r3
 697 011a 1A1C     		mov	r2, r3
 698 011c 0123     		mov	r3, #1
 699 011e 1340     		and	r3, r2
 700 0120 2DD0     		beq	.L44
 871:.\Generated_Source\PSoC4/BLE_1_eventHandler.c ****             {
 872:.\Generated_Source\PSoC4/BLE_1_eventHandler.c ****                 /* After CyBle_GappStartAdvertisement first event indicates that advertising has be
 873:.\Generated_Source\PSoC4/BLE_1_eventHandler.c ****                 if(0u != (cyBle_eventHandlerFlag & CYBLE_START_FLAG))
 701              		.loc 1 873 0 is_stmt 1
 702 0122 4B4B     		ldr	r3, .L51
 703 0124 1B78     		ldrb	r3, [r3]
 704 0126 DBB2     		uxtb	r3, r3
 705 0128 1A1C     		mov	r2, r3
 706 012a 0423     		mov	r3, #4
 707 012c 1340     		and	r3, r2
 708 012e 0BD0     		beq	.L45
 874:.\Generated_Source\PSoC4/BLE_1_eventHandler.c ****                 {
 875:.\Generated_Source\PSoC4/BLE_1_eventHandler.c ****                     CyBle_SetState(CYBLE_STATE_ADVERTISING);
 709              		.loc 1 875 0
 710 0130 4E4B     		ldr	r3, .L51+28
 711 0132 0322     		mov	r2, #3
 712 0134 1A70     		strb	r2, [r3]
 876:.\Generated_Source\PSoC4/BLE_1_eventHandler.c ****                     cyBle_eventHandlerFlag &= (uint8)~CYBLE_START_FLAG;
 713              		.loc 1 876 0
 714 0136 464B     		ldr	r3, .L51
 715 0138 1B78     		ldrb	r3, [r3]
 716 013a DBB2     		uxtb	r3, r3
 717 013c 0422     		mov	r2, #4
 718 013e 9343     		bic	r3, r2
ARM GAS  C:\Users\mliha\AppData\Local\Temp\cc428Uxc.s 			page 29


 719 0140 DAB2     		uxtb	r2, r3
 720 0142 434B     		ldr	r3, .L51
 721 0144 1A70     		strb	r2, [r3]
 722 0146 1AE0     		b	.L44
 723              	.L45:
 877:.\Generated_Source\PSoC4/BLE_1_eventHandler.c ****                 }
 878:.\Generated_Source\PSoC4/BLE_1_eventHandler.c ****                 /* When application initiated stop advertisement */
 879:.\Generated_Source\PSoC4/BLE_1_eventHandler.c ****                 else if(0u != (cyBle_eventHandlerFlag & CYBLE_STOP_FLAG))
 724              		.loc 1 879 0
 725 0148 414B     		ldr	r3, .L51
 726 014a 1B78     		ldrb	r3, [r3]
 727 014c DBB2     		uxtb	r3, r3
 728 014e 1A1C     		mov	r2, r3
 729 0150 0823     		mov	r3, #8
 730 0152 1340     		and	r3, r2
 731 0154 0BD0     		beq	.L46
 880:.\Generated_Source\PSoC4/BLE_1_eventHandler.c ****                 {
 881:.\Generated_Source\PSoC4/BLE_1_eventHandler.c ****                     CyBle_SetState(CYBLE_STATE_DISCONNECTED);  
 732              		.loc 1 881 0
 733 0156 454B     		ldr	r3, .L51+28
 734 0158 0422     		mov	r2, #4
 735 015a 1A70     		strb	r2, [r3]
 882:.\Generated_Source\PSoC4/BLE_1_eventHandler.c ****                     cyBle_eventHandlerFlag &= (uint8)~CYBLE_STOP_FLAG;
 736              		.loc 1 882 0
 737 015c 3C4B     		ldr	r3, .L51
 738 015e 1B78     		ldrb	r3, [r3]
 739 0160 DBB2     		uxtb	r3, r3
 740 0162 0822     		mov	r2, #8
 741 0164 9343     		bic	r3, r2
 742 0166 DAB2     		uxtb	r2, r3
 743 0168 394B     		ldr	r3, .L51
 744 016a 1A70     		strb	r2, [r3]
 745 016c 07E0     		b	.L44
 746              	.L46:
 883:.\Generated_Source\PSoC4/BLE_1_eventHandler.c ****                 }
 884:.\Generated_Source\PSoC4/BLE_1_eventHandler.c ****                 else /* Following event indicates that advertising has been stopped */
 885:.\Generated_Source\PSoC4/BLE_1_eventHandler.c ****                 {
 886:.\Generated_Source\PSoC4/BLE_1_eventHandler.c ****                     if(CYBLE_STATE_ADVERTISING == CyBle_GetState())
 747              		.loc 1 886 0
 748 016e 3F4B     		ldr	r3, .L51+28
 749 0170 1B78     		ldrb	r3, [r3]
 750 0172 032B     		cmp	r3, #3
 751 0174 03D1     		bne	.L44
 887:.\Generated_Source\PSoC4/BLE_1_eventHandler.c ****                     {
 888:.\Generated_Source\PSoC4/BLE_1_eventHandler.c ****                         CyBle_SetState(CYBLE_STATE_DISCONNECTED);
 752              		.loc 1 888 0
 753 0176 3D4B     		ldr	r3, .L51+28
 754 0178 0422     		mov	r2, #4
 755 017a 1A70     		strb	r2, [r3]
 889:.\Generated_Source\PSoC4/BLE_1_eventHandler.c ****                     #if (CYBLE_SLOW_ADV_ENABLED != 0u)
 890:.\Generated_Source\PSoC4/BLE_1_eventHandler.c ****                         if(cyBle_advertisingIntervalType == CYBLE_ADVERTISING_FAST)
 891:.\Generated_Source\PSoC4/BLE_1_eventHandler.c ****                         {
 892:.\Generated_Source\PSoC4/BLE_1_eventHandler.c ****                             /* When fast advertising time out occur: Start slow advertising */
 893:.\Generated_Source\PSoC4/BLE_1_eventHandler.c ****                             if(CYBLE_ERROR_OK == CyBle_GappStartAdvertisement(CYBLE_ADVERTISING_SLO
 894:.\Generated_Source\PSoC4/BLE_1_eventHandler.c ****                             {
 895:.\Generated_Source\PSoC4/BLE_1_eventHandler.c ****                                 CyBle_SetState(CYBLE_STATE_ADVERTISING);
 896:.\Generated_Source\PSoC4/BLE_1_eventHandler.c ****                             }
ARM GAS  C:\Users\mliha\AppData\Local\Temp\cc428Uxc.s 			page 30


 897:.\Generated_Source\PSoC4/BLE_1_eventHandler.c ****                         }
 898:.\Generated_Source\PSoC4/BLE_1_eventHandler.c ****                     #endif /* CYBLE_SLOW_ADV_ENABLED */
 899:.\Generated_Source\PSoC4/BLE_1_eventHandler.c ****                     }
 900:.\Generated_Source\PSoC4/BLE_1_eventHandler.c ****                 }
 901:.\Generated_Source\PSoC4/BLE_1_eventHandler.c ****             }
 902:.\Generated_Source\PSoC4/BLE_1_eventHandler.c ****             break;
 756              		.loc 1 902 0
 757 017c 4DE0     		b	.L41
 758              	.L44:
 759 017e 4CE0     		b	.L41
 760              	.L38:
 903:.\Generated_Source\PSoC4/BLE_1_eventHandler.c ****         #endif /* CYBLE_GAP_ROLE_PERIPHERAL || CYBLE_GAP_ROLE_BROADCASTER */
 904:.\Generated_Source\PSoC4/BLE_1_eventHandler.c ****         
 905:.\Generated_Source\PSoC4/BLE_1_eventHandler.c ****         #if(CYBLE_GAP_ROLE_CENTRAL || CYBLE_GAP_ROLE_OBSERVER)    
 906:.\Generated_Source\PSoC4/BLE_1_eventHandler.c ****         case CYBLE_EVT_GAPC_SCAN_START_STOP:
 907:.\Generated_Source\PSoC4/BLE_1_eventHandler.c ****             
 908:.\Generated_Source\PSoC4/BLE_1_eventHandler.c ****         #ifdef CYBLE_CPS_CLIENT
 909:.\Generated_Source\PSoC4/BLE_1_eventHandler.c ****             CyBle_CpscScanStartStopEventHandler();
 910:.\Generated_Source\PSoC4/BLE_1_eventHandler.c ****         #endif /* CYBLE_CPS_CLIENT */
 911:.\Generated_Source\PSoC4/BLE_1_eventHandler.c ****             
 912:.\Generated_Source\PSoC4/BLE_1_eventHandler.c ****             if((CYBLE_STATE_CONNECTED != CyBle_GetState()) && ((cyBle_eventHandlerFlag & CYBLE_CALL
 913:.\Generated_Source\PSoC4/BLE_1_eventHandler.c ****             {
 914:.\Generated_Source\PSoC4/BLE_1_eventHandler.c ****                 /* After CyBle_GapcStartScan first event indicates that scanning has been started *
 915:.\Generated_Source\PSoC4/BLE_1_eventHandler.c ****                 if(0u != (cyBle_eventHandlerFlag & CYBLE_START_FLAG))
 916:.\Generated_Source\PSoC4/BLE_1_eventHandler.c ****                 {
 917:.\Generated_Source\PSoC4/BLE_1_eventHandler.c ****                     CyBle_SetState(CYBLE_STATE_SCANNING);
 918:.\Generated_Source\PSoC4/BLE_1_eventHandler.c ****                     cyBle_eventHandlerFlag &= (uint8)~CYBLE_START_FLAG;
 919:.\Generated_Source\PSoC4/BLE_1_eventHandler.c ****                 }
 920:.\Generated_Source\PSoC4/BLE_1_eventHandler.c ****                 /* When application initiated stop scanning */
 921:.\Generated_Source\PSoC4/BLE_1_eventHandler.c ****                 else if(0u != (cyBle_eventHandlerFlag & CYBLE_STOP_FLAG))
 922:.\Generated_Source\PSoC4/BLE_1_eventHandler.c ****                 {
 923:.\Generated_Source\PSoC4/BLE_1_eventHandler.c ****                     CyBle_SetState(CYBLE_STATE_DISCONNECTED);  
 924:.\Generated_Source\PSoC4/BLE_1_eventHandler.c ****                     cyBle_eventHandlerFlag &= (uint8)~CYBLE_STOP_FLAG;
 925:.\Generated_Source\PSoC4/BLE_1_eventHandler.c ****                 }
 926:.\Generated_Source\PSoC4/BLE_1_eventHandler.c ****                 else /* Following event indicates that scanning has been stopped by stack */
 927:.\Generated_Source\PSoC4/BLE_1_eventHandler.c ****                 {
 928:.\Generated_Source\PSoC4/BLE_1_eventHandler.c ****                     if(CYBLE_STATE_SCANNING == CyBle_GetState())
 929:.\Generated_Source\PSoC4/BLE_1_eventHandler.c ****                     {
 930:.\Generated_Source\PSoC4/BLE_1_eventHandler.c ****                         CyBle_SetState(CYBLE_STATE_DISCONNECTED);  
 931:.\Generated_Source\PSoC4/BLE_1_eventHandler.c ****                     #if (CYBLE_SLOW_SCAN_ENABLED != 0u)
 932:.\Generated_Source\PSoC4/BLE_1_eventHandler.c ****                         if(cyBle_scanningIntervalType == CYBLE_SCANNING_FAST)
 933:.\Generated_Source\PSoC4/BLE_1_eventHandler.c ****                         {
 934:.\Generated_Source\PSoC4/BLE_1_eventHandler.c ****                             /* When fast scanning time out occur: Start slow scanning */
 935:.\Generated_Source\PSoC4/BLE_1_eventHandler.c ****                             if(CYBLE_ERROR_OK == CyBle_GapcStartScan(CYBLE_SCANNING_SLOW))
 936:.\Generated_Source\PSoC4/BLE_1_eventHandler.c ****                             {
 937:.\Generated_Source\PSoC4/BLE_1_eventHandler.c ****                                 CyBle_SetState(CYBLE_STATE_SCANNING);
 938:.\Generated_Source\PSoC4/BLE_1_eventHandler.c ****                             }
 939:.\Generated_Source\PSoC4/BLE_1_eventHandler.c ****                         }
 940:.\Generated_Source\PSoC4/BLE_1_eventHandler.c ****                     #endif /* CYBLE_SLOW_ADV_ENABLED */
 941:.\Generated_Source\PSoC4/BLE_1_eventHandler.c ****                     }
 942:.\Generated_Source\PSoC4/BLE_1_eventHandler.c ****                 }
 943:.\Generated_Source\PSoC4/BLE_1_eventHandler.c ****             }
 944:.\Generated_Source\PSoC4/BLE_1_eventHandler.c ****             break;
 945:.\Generated_Source\PSoC4/BLE_1_eventHandler.c ****         #endif /* CYBLE_GAP_ROLE_CENTRAL || CYBLE_GAP_ROLE_OBSERVER */
 946:.\Generated_Source\PSoC4/BLE_1_eventHandler.c **** 
 947:.\Generated_Source\PSoC4/BLE_1_eventHandler.c ****         /**********************************************************
 948:.\Generated_Source\PSoC4/BLE_1_eventHandler.c ****         ##L2AP events 
ARM GAS  C:\Users\mliha\AppData\Local\Temp\cc428Uxc.s 			page 31


 949:.\Generated_Source\PSoC4/BLE_1_eventHandler.c ****         ***********************************************************/
 950:.\Generated_Source\PSoC4/BLE_1_eventHandler.c ****         case CYBLE_EVT_L2CAP_CONN_PARAM_UPDATE_RSP:
 951:.\Generated_Source\PSoC4/BLE_1_eventHandler.c ****             CyBle_L2Cap_ConnParamUpdateRspEventHandler(*(uint16 *)eventParam);
 761              		.loc 1 951 0
 762 0180 3B68     		ldr	r3, [r7]
 763 0182 1B88     		ldrh	r3, [r3]
 764 0184 181C     		mov	r0, r3
 765 0186 FFF7FEFF 		bl	CyBle_L2Cap_ConnParamUpdateRspEventHandler
 952:.\Generated_Source\PSoC4/BLE_1_eventHandler.c ****             break;
 766              		.loc 1 952 0
 767 018a 46E0     		b	.L41
 768              	.L32:
 953:.\Generated_Source\PSoC4/BLE_1_eventHandler.c ****         
 954:.\Generated_Source\PSoC4/BLE_1_eventHandler.c ****         /**********************************************************
 955:.\Generated_Source\PSoC4/BLE_1_eventHandler.c ****         ##GATT events
 956:.\Generated_Source\PSoC4/BLE_1_eventHandler.c ****         ***********************************************************/        
 957:.\Generated_Source\PSoC4/BLE_1_eventHandler.c ****         case CYBLE_EVT_GATT_CONNECT_IND:
 958:.\Generated_Source\PSoC4/BLE_1_eventHandler.c ****             cyBle_connHandle = *(CYBLE_CONN_HANDLE_T *)eventParam;
 769              		.loc 1 958 0
 770 018c 3A4A     		ldr	r2, .L51+40
 771 018e 3B68     		ldr	r3, [r7]
 772 0190 111C     		mov	r1, r2
 773 0192 1A1C     		mov	r2, r3
 774 0194 0223     		mov	r3, #2
 775 0196 081C     		mov	r0, r1
 776 0198 111C     		mov	r1, r2
 777 019a 1A1C     		mov	r2, r3
 778 019c FFF7FEFF 		bl	memcpy
 959:.\Generated_Source\PSoC4/BLE_1_eventHandler.c ****             
 960:.\Generated_Source\PSoC4/BLE_1_eventHandler.c ****         #if((CYBLE_GATT_ROLE_SERVER) && (CYBLE_GATT_DB_CCCD_COUNT != 0u))
 961:.\Generated_Source\PSoC4/BLE_1_eventHandler.c ****             /* Init CCCD values in RAM */
 962:.\Generated_Source\PSoC4/BLE_1_eventHandler.c ****         	(void) memcpy (cyBle_attValuesCCCD, cyBle_attValuesCCCDFlashMemory[cyBle_connHandle.bdHand
 779              		.loc 1 962 0
 780 01a0 354B     		ldr	r3, .L51+40
 781 01a2 1B78     		ldrb	r3, [r3]
 782 01a4 9A00     		lsl	r2, r3, #2
 783 01a6 354B     		ldr	r3, .L51+44
 784 01a8 D318     		add	r3, r2, r3
 785 01aa 354A     		ldr	r2, .L51+48
 786 01ac 111C     		mov	r1, r2
 787 01ae 1A1C     		mov	r2, r3
 788 01b0 0423     		mov	r3, #4
 789 01b2 081C     		mov	r0, r1
 790 01b4 111C     		mov	r1, r2
 791 01b6 1A1C     		mov	r2, r3
 792 01b8 FFF7FEFF 		bl	memcpy
 963:.\Generated_Source\PSoC4/BLE_1_eventHandler.c ****                             CYBLE_GATT_DB_CCCD_COUNT);
 964:.\Generated_Source\PSoC4/BLE_1_eventHandler.c ****         #endif /* CYBLE_GATT_ROLE_SERVER */
 965:.\Generated_Source\PSoC4/BLE_1_eventHandler.c ****         
 966:.\Generated_Source\PSoC4/BLE_1_eventHandler.c ****         #if (CYBLE_GATT_ROLE_CLIENT)
 967:.\Generated_Source\PSoC4/BLE_1_eventHandler.c ****             CyBle_SetClientState(CYBLE_CLIENT_STATE_CONNECTED);
 968:.\Generated_Source\PSoC4/BLE_1_eventHandler.c ****         #endif /* CYBLE_GATT_ROLE_CLIENT */
 969:.\Generated_Source\PSoC4/BLE_1_eventHandler.c ****         
 970:.\Generated_Source\PSoC4/BLE_1_eventHandler.c ****             CyBle_GattConnectReqHandler();
 793              		.loc 1 970 0
 794 01bc FFF7FEFF 		bl	CyBle_GattConnectReqHandler
 971:.\Generated_Source\PSoC4/BLE_1_eventHandler.c ****             break;
ARM GAS  C:\Users\mliha\AppData\Local\Temp\cc428Uxc.s 			page 32


 795              		.loc 1 971 0
 796 01c0 2BE0     		b	.L41
 797              	.L33:
 972:.\Generated_Source\PSoC4/BLE_1_eventHandler.c **** 
 973:.\Generated_Source\PSoC4/BLE_1_eventHandler.c ****         case CYBLE_EVT_GATT_DISCONNECT_IND:
 974:.\Generated_Source\PSoC4/BLE_1_eventHandler.c ****             CyBle_GattDisconnectEventHandler();
 798              		.loc 1 974 0
 799 01c2 FFF7FEFF 		bl	CyBle_GattDisconnectEventHandler
 975:.\Generated_Source\PSoC4/BLE_1_eventHandler.c ****             break;
 800              		.loc 1 975 0
 801 01c6 28E0     		b	.L41
 802              	.L34:
 803              	.LBB4:
 976:.\Generated_Source\PSoC4/BLE_1_eventHandler.c **** 
 977:.\Generated_Source\PSoC4/BLE_1_eventHandler.c ****     #if((CYBLE_GATT_ROLE_SERVER) || (CYBLE_GATT_ROLE_CLIENT))
 978:.\Generated_Source\PSoC4/BLE_1_eventHandler.c ****         case CYBLE_EVT_GATTS_XCNHG_MTU_REQ:
 979:.\Generated_Source\PSoC4/BLE_1_eventHandler.c ****         {
 980:.\Generated_Source\PSoC4/BLE_1_eventHandler.c ****             uint16 cyBle_mtuSize;
 981:.\Generated_Source\PSoC4/BLE_1_eventHandler.c ****             if(CYBLE_GATT_MTU > ((CYBLE_GATT_XCHG_MTU_PARAM_T *)eventParam)->mtu)
 804              		.loc 1 981 0
 805 01c8 3B68     		ldr	r3, [r7]
 806 01ca 5B88     		ldrh	r3, [r3, #2]
 807 01cc 162B     		cmp	r3, #22
 808 01ce 05D8     		bhi	.L47
 982:.\Generated_Source\PSoC4/BLE_1_eventHandler.c ****             {
 983:.\Generated_Source\PSoC4/BLE_1_eventHandler.c ****                 cyBle_mtuSize = ((CYBLE_GATT_XCHG_MTU_PARAM_T *)eventParam)->mtu;
 809              		.loc 1 983 0
 810 01d0 3B1C     		mov	r3, r7
 811 01d2 0E33     		add	r3, r3, #14
 812 01d4 3A68     		ldr	r2, [r7]
 813 01d6 5288     		ldrh	r2, [r2, #2]
 814 01d8 1A80     		strh	r2, [r3]
 815 01da 03E0     		b	.L48
 816              	.L47:
 984:.\Generated_Source\PSoC4/BLE_1_eventHandler.c ****             }
 985:.\Generated_Source\PSoC4/BLE_1_eventHandler.c ****             else
 986:.\Generated_Source\PSoC4/BLE_1_eventHandler.c ****             {
 987:.\Generated_Source\PSoC4/BLE_1_eventHandler.c ****                 cyBle_mtuSize = CYBLE_GATT_MTU;
 817              		.loc 1 987 0
 818 01dc 3B1C     		mov	r3, r7
 819 01de 0E33     		add	r3, r3, #14
 820 01e0 1722     		mov	r2, #23
 821 01e2 1A80     		strh	r2, [r3]
 822              	.L48:
 988:.\Generated_Source\PSoC4/BLE_1_eventHandler.c ****             }
 989:.\Generated_Source\PSoC4/BLE_1_eventHandler.c ****             (void)CyBle_GattsExchangeMtuRsp(((CYBLE_GATT_XCHG_MTU_PARAM_T *)eventParam)->connHandle
 823              		.loc 1 989 0
 824 01e4 3B68     		ldr	r3, [r7]
 825 01e6 3A1C     		mov	r2, r7
 826 01e8 0E32     		add	r2, r2, #14
 827 01ea 1288     		ldrh	r2, [r2]
 828 01ec 1988     		ldrh	r1, [r3]
 829 01ee 0023     		mov	r3, #0
 830 01f0 0904     		lsl	r1, r1, #16
 831 01f2 090C     		lsr	r1, r1, #16
 832 01f4 1B0C     		lsr	r3, r3, #16
 833 01f6 1B04     		lsl	r3, r3, #16
ARM GAS  C:\Users\mliha\AppData\Local\Temp\cc428Uxc.s 			page 33


 834 01f8 0B43     		orr	r3, r1
 835 01fa 181C     		mov	r0, r3
 836 01fc 111C     		mov	r1, r2
 837 01fe FFF7FEFF 		bl	CyBle_GattsExchangeMtuRsp
 838              	.LBE4:
 990:.\Generated_Source\PSoC4/BLE_1_eventHandler.c ****              }
 991:.\Generated_Source\PSoC4/BLE_1_eventHandler.c ****             break;
 839              		.loc 1 991 0
 840 0202 0AE0     		b	.L41
 841              	.L35:
 992:.\Generated_Source\PSoC4/BLE_1_eventHandler.c ****     #endif /* (CYBLE_GATT_ROLE_SERVER) || (CYBLE_GATT_ROLE_CLIENT) */
 993:.\Generated_Source\PSoC4/BLE_1_eventHandler.c ****     
 994:.\Generated_Source\PSoC4/BLE_1_eventHandler.c ****     #if (CYBLE_GATT_ROLE_CLIENT)
 995:.\Generated_Source\PSoC4/BLE_1_eventHandler.c ****         case CYBLE_EVT_GAPC_SCAN_PROGRESS_RESULT:
 996:.\Generated_Source\PSoC4/BLE_1_eventHandler.c ****         #ifdef CYBLE_CPS_CLIENT
 997:.\Generated_Source\PSoC4/BLE_1_eventHandler.c ****                 CyBle_CpscScanProcessEventHandler((CYBLE_GAPC_ADV_REPORT_T *)eventParam);
 998:.\Generated_Source\PSoC4/BLE_1_eventHandler.c ****         #endif /* defined(CYBLE_CPS_CLIENT) */
 999:.\Generated_Source\PSoC4/BLE_1_eventHandler.c ****             break;
1000:.\Generated_Source\PSoC4/BLE_1_eventHandler.c ****     #endif /* (CYBLE_GATT_ROLE_CLIENT) */
1001:.\Generated_Source\PSoC4/BLE_1_eventHandler.c **** 
1002:.\Generated_Source\PSoC4/BLE_1_eventHandler.c ****     #if(CYBLE_GATT_ROLE_SERVER)
1003:.\Generated_Source\PSoC4/BLE_1_eventHandler.c ****         case CYBLE_EVT_GATTS_WRITE_REQ:
1004:.\Generated_Source\PSoC4/BLE_1_eventHandler.c ****             CyBle_WriteReqHandler((CYBLE_GATTS_WRITE_REQ_PARAM_T *)eventParam);
 842              		.loc 1 1004 0
 843 0204 3B68     		ldr	r3, [r7]
 844 0206 181C     		mov	r0, r3
 845 0208 FFF7FEFF 		bl	CyBle_WriteReqHandler
1005:.\Generated_Source\PSoC4/BLE_1_eventHandler.c ****             break;
 846              		.loc 1 1005 0
 847 020c 05E0     		b	.L41
 848              	.L37:
1006:.\Generated_Source\PSoC4/BLE_1_eventHandler.c **** 
1007:.\Generated_Source\PSoC4/BLE_1_eventHandler.c ****         case CYBLE_EVT_GATTS_WRITE_CMD_REQ:
1008:.\Generated_Source\PSoC4/BLE_1_eventHandler.c ****         #if defined(CYBLE_IAS_SERVER)
1009:.\Generated_Source\PSoC4/BLE_1_eventHandler.c ****             if((cyBle_eventHandlerFlag & CYBLE_CALLBACK) != 0u)
1010:.\Generated_Source\PSoC4/BLE_1_eventHandler.c ****             {
1011:.\Generated_Source\PSoC4/BLE_1_eventHandler.c ****                 (void)CyBle_IassWriteCmdEventHandler((CYBLE_GATTS_WRITE_REQ_PARAM_T *)eventParam);
1012:.\Generated_Source\PSoC4/BLE_1_eventHandler.c ****             }
1013:.\Generated_Source\PSoC4/BLE_1_eventHandler.c ****         #endif /* defined(CYBLE_IAS_SERVER) */
1014:.\Generated_Source\PSoC4/BLE_1_eventHandler.c ****         #if defined(CYBLE_HIDS_SERVER)
1015:.\Generated_Source\PSoC4/BLE_1_eventHandler.c ****             if((cyBle_eventHandlerFlag & CYBLE_CALLBACK) != 0u)
1016:.\Generated_Source\PSoC4/BLE_1_eventHandler.c ****             {
1017:.\Generated_Source\PSoC4/BLE_1_eventHandler.c ****                 (void)CyBle_HidssWriteEventHandler((CYBLE_GATTS_WRITE_REQ_PARAM_T *)eventParam);
1018:.\Generated_Source\PSoC4/BLE_1_eventHandler.c ****             }
1019:.\Generated_Source\PSoC4/BLE_1_eventHandler.c ****         #endif /* defined(CYBLE_HIDS_SERVER) */
1020:.\Generated_Source\PSoC4/BLE_1_eventHandler.c ****         #if defined(CYBLE_PASS_SERVER)
1021:.\Generated_Source\PSoC4/BLE_1_eventHandler.c ****             if((cyBle_eventHandlerFlag & CYBLE_CALLBACK) != 0u)
1022:.\Generated_Source\PSoC4/BLE_1_eventHandler.c ****             {
1023:.\Generated_Source\PSoC4/BLE_1_eventHandler.c ****                 (void)CyBle_PasssWriteCmdEventHandler((CYBLE_GATTS_WRITE_REQ_PARAM_T *)eventParam);
1024:.\Generated_Source\PSoC4/BLE_1_eventHandler.c ****             }
1025:.\Generated_Source\PSoC4/BLE_1_eventHandler.c ****         #endif /* defined(CYBLE_PASS_SERVER) */
1026:.\Generated_Source\PSoC4/BLE_1_eventHandler.c ****         #if defined(CYBLE_RTUS_SERVER)
1027:.\Generated_Source\PSoC4/BLE_1_eventHandler.c ****             if((cyBle_eventHandlerFlag & CYBLE_CALLBACK) != 0u)
1028:.\Generated_Source\PSoC4/BLE_1_eventHandler.c ****             {
1029:.\Generated_Source\PSoC4/BLE_1_eventHandler.c ****                 (void)CyBle_RtussWriteCmdEventHandler((CYBLE_GATTS_WRITE_REQ_PARAM_T *)eventParam);
1030:.\Generated_Source\PSoC4/BLE_1_eventHandler.c ****             }
1031:.\Generated_Source\PSoC4/BLE_1_eventHandler.c ****         #endif /* defined(CYBLE_RTUS_SERVER) */
ARM GAS  C:\Users\mliha\AppData\Local\Temp\cc428Uxc.s 			page 34


1032:.\Generated_Source\PSoC4/BLE_1_eventHandler.c ****         #if defined(CYBLE_SCPS_SERVER)
1033:.\Generated_Source\PSoC4/BLE_1_eventHandler.c ****             if((cyBle_eventHandlerFlag & CYBLE_CALLBACK) != 0u)
1034:.\Generated_Source\PSoC4/BLE_1_eventHandler.c ****             {
1035:.\Generated_Source\PSoC4/BLE_1_eventHandler.c ****                 (void)CyBle_ScpssWriteEventHandler((CYBLE_GATTS_WRITE_REQ_PARAM_T *)eventParam);
1036:.\Generated_Source\PSoC4/BLE_1_eventHandler.c ****             }
1037:.\Generated_Source\PSoC4/BLE_1_eventHandler.c ****         #endif /* defined(CYBLE_SCPS_SERVER) */
1038:.\Generated_Source\PSoC4/BLE_1_eventHandler.c ****             break;
1039:.\Generated_Source\PSoC4/BLE_1_eventHandler.c ****             
1040:.\Generated_Source\PSoC4/BLE_1_eventHandler.c ****         case CYBLE_EVT_GATTS_HANDLE_VALUE_CNF:
1041:.\Generated_Source\PSoC4/BLE_1_eventHandler.c ****             CyBle_ValueConfirmation((CYBLE_CONN_HANDLE_T *)eventParam);
 849              		.loc 1 1041 0
 850 020e 3B68     		ldr	r3, [r7]
 851 0210 181C     		mov	r0, r3
 852 0212 FFF7FEFF 		bl	CyBle_ValueConfirmation
1042:.\Generated_Source\PSoC4/BLE_1_eventHandler.c ****             break;
 853              		.loc 1 1042 0
 854 0216 00E0     		b	.L41
 855              	.L50:
1043:.\Generated_Source\PSoC4/BLE_1_eventHandler.c ****     #endif /* CYBLE_GATT_ROLE_SERVER */
1044:.\Generated_Source\PSoC4/BLE_1_eventHandler.c **** 
1045:.\Generated_Source\PSoC4/BLE_1_eventHandler.c ****     #if (CYBLE_GATT_ROLE_CLIENT)
1046:.\Generated_Source\PSoC4/BLE_1_eventHandler.c ****         case CYBLE_EVT_GATTC_READ_BY_GROUP_TYPE_RSP:
1047:.\Generated_Source\PSoC4/BLE_1_eventHandler.c ****             CyBle_ReadByGroupEventHandler((CYBLE_GATTC_READ_BY_GRP_RSP_PARAM_T *)eventParam);
1048:.\Generated_Source\PSoC4/BLE_1_eventHandler.c ****             break;
1049:.\Generated_Source\PSoC4/BLE_1_eventHandler.c **** 
1050:.\Generated_Source\PSoC4/BLE_1_eventHandler.c ****         case CYBLE_EVT_GATTC_READ_BY_TYPE_RSP:
1051:.\Generated_Source\PSoC4/BLE_1_eventHandler.c ****             CyBle_ReadByTypeEventHandler((CYBLE_GATTC_READ_BY_TYPE_RSP_PARAM_T *)eventParam);
1052:.\Generated_Source\PSoC4/BLE_1_eventHandler.c ****             break;
1053:.\Generated_Source\PSoC4/BLE_1_eventHandler.c **** 
1054:.\Generated_Source\PSoC4/BLE_1_eventHandler.c ****         case CYBLE_EVT_GATTC_FIND_INFO_RSP:
1055:.\Generated_Source\PSoC4/BLE_1_eventHandler.c ****             CyBle_FindInfoEventHandler((CYBLE_GATTC_FIND_INFO_RSP_PARAM_T *)eventParam);
1056:.\Generated_Source\PSoC4/BLE_1_eventHandler.c ****             break;
1057:.\Generated_Source\PSoC4/BLE_1_eventHandler.c **** 
1058:.\Generated_Source\PSoC4/BLE_1_eventHandler.c ****         case CYBLE_EVT_GATTC_ERROR_RSP:
1059:.\Generated_Source\PSoC4/BLE_1_eventHandler.c ****             CyBle_ErrorResponseEventHandler((CYBLE_GATTC_ERR_RSP_PARAM_T *)eventParam);
1060:.\Generated_Source\PSoC4/BLE_1_eventHandler.c ****             break;
1061:.\Generated_Source\PSoC4/BLE_1_eventHandler.c **** 
1062:.\Generated_Source\PSoC4/BLE_1_eventHandler.c ****         case CYBLE_EVT_GATTC_HANDLE_VALUE_NTF:
1063:.\Generated_Source\PSoC4/BLE_1_eventHandler.c ****         #ifdef CYBLE_ANS_CLIENT
1064:.\Generated_Source\PSoC4/BLE_1_eventHandler.c ****             CyBle_AnscNotificationEventHandler((CYBLE_GATTC_HANDLE_VALUE_NTF_PARAM_T *)eventParam);
1065:.\Generated_Source\PSoC4/BLE_1_eventHandler.c ****         #endif /* defined(CYBLE_ANS_CLIENT) */
1066:.\Generated_Source\PSoC4/BLE_1_eventHandler.c ****         #ifdef CYBLE_BAS_CLIENT
1067:.\Generated_Source\PSoC4/BLE_1_eventHandler.c ****             if((cyBle_eventHandlerFlag & CYBLE_CALLBACK) != 0u)
1068:.\Generated_Source\PSoC4/BLE_1_eventHandler.c ****             {
1069:.\Generated_Source\PSoC4/BLE_1_eventHandler.c ****                 CyBle_BascNotificationEventHandler((CYBLE_GATTC_HANDLE_VALUE_NTF_PARAM_T *)eventPar
1070:.\Generated_Source\PSoC4/BLE_1_eventHandler.c ****             }
1071:.\Generated_Source\PSoC4/BLE_1_eventHandler.c ****         #endif /* defined(CYBLE_BAS_CLIENT) */
1072:.\Generated_Source\PSoC4/BLE_1_eventHandler.c ****         #ifdef CYBLE_BLS_CLIENT
1073:.\Generated_Source\PSoC4/BLE_1_eventHandler.c ****             if((cyBle_eventHandlerFlag & CYBLE_CALLBACK) != 0u)
1074:.\Generated_Source\PSoC4/BLE_1_eventHandler.c ****             {
1075:.\Generated_Source\PSoC4/BLE_1_eventHandler.c ****                 CyBle_BlscNotificationEventHandler((CYBLE_GATTC_HANDLE_VALUE_NTF_PARAM_T *)eventPar
1076:.\Generated_Source\PSoC4/BLE_1_eventHandler.c ****             }
1077:.\Generated_Source\PSoC4/BLE_1_eventHandler.c ****         #endif /* defined(CYBLE_BLS_CLIENT) */
1078:.\Generated_Source\PSoC4/BLE_1_eventHandler.c ****         #ifdef CYBLE_CPS_CLIENT
1079:.\Generated_Source\PSoC4/BLE_1_eventHandler.c ****             if((cyBle_eventHandlerFlag & CYBLE_CALLBACK) != 0u)
1080:.\Generated_Source\PSoC4/BLE_1_eventHandler.c ****             {
1081:.\Generated_Source\PSoC4/BLE_1_eventHandler.c ****                 CyBle_CpscNotificationEventHandler((CYBLE_GATTC_HANDLE_VALUE_NTF_PARAM_T *)eventPar
ARM GAS  C:\Users\mliha\AppData\Local\Temp\cc428Uxc.s 			page 35


1082:.\Generated_Source\PSoC4/BLE_1_eventHandler.c ****             }
1083:.\Generated_Source\PSoC4/BLE_1_eventHandler.c ****         #endif /* defined(CYBLE_CPS_CLIENT) */
1084:.\Generated_Source\PSoC4/BLE_1_eventHandler.c ****         #ifdef CYBLE_CSCS_CLIENT
1085:.\Generated_Source\PSoC4/BLE_1_eventHandler.c ****             if((cyBle_eventHandlerFlag & CYBLE_CALLBACK) != 0u)
1086:.\Generated_Source\PSoC4/BLE_1_eventHandler.c ****             {
1087:.\Generated_Source\PSoC4/BLE_1_eventHandler.c ****                 CyBle_CscscNotificationEventHandler((CYBLE_GATTC_HANDLE_VALUE_NTF_PARAM_T *)eventPa
1088:.\Generated_Source\PSoC4/BLE_1_eventHandler.c ****             }
1089:.\Generated_Source\PSoC4/BLE_1_eventHandler.c ****         #endif /* defined(CYBLE_CSCS_CLIENT) */
1090:.\Generated_Source\PSoC4/BLE_1_eventHandler.c ****         #ifdef CYBLE_CTS_CLIENT
1091:.\Generated_Source\PSoC4/BLE_1_eventHandler.c ****             if((cyBle_eventHandlerFlag & CYBLE_CALLBACK) != 0u)
1092:.\Generated_Source\PSoC4/BLE_1_eventHandler.c ****             {
1093:.\Generated_Source\PSoC4/BLE_1_eventHandler.c ****                 CyBle_CtscNotificationEventHandler((CYBLE_GATTC_HANDLE_VALUE_NTF_PARAM_T *)eventPar
1094:.\Generated_Source\PSoC4/BLE_1_eventHandler.c ****             }
1095:.\Generated_Source\PSoC4/BLE_1_eventHandler.c ****         #endif /* defined(CYBLE_CTS_CLIENT) */
1096:.\Generated_Source\PSoC4/BLE_1_eventHandler.c ****         #ifdef CYBLE_GLS_CLIENT
1097:.\Generated_Source\PSoC4/BLE_1_eventHandler.c ****             if((cyBle_eventHandlerFlag & CYBLE_CALLBACK) != 0u)
1098:.\Generated_Source\PSoC4/BLE_1_eventHandler.c ****             {
1099:.\Generated_Source\PSoC4/BLE_1_eventHandler.c ****                 CyBle_GlscNotificationEventHandler((CYBLE_GATTC_HANDLE_VALUE_NTF_PARAM_T *)eventPar
1100:.\Generated_Source\PSoC4/BLE_1_eventHandler.c ****             }
1101:.\Generated_Source\PSoC4/BLE_1_eventHandler.c ****         #endif /* defined(CYBLE_GLS_CLIENT) */
1102:.\Generated_Source\PSoC4/BLE_1_eventHandler.c ****         #ifdef CYBLE_HIDS_CLIENT
1103:.\Generated_Source\PSoC4/BLE_1_eventHandler.c ****             if((cyBle_eventHandlerFlag & CYBLE_CALLBACK) != 0u)
1104:.\Generated_Source\PSoC4/BLE_1_eventHandler.c ****             {
1105:.\Generated_Source\PSoC4/BLE_1_eventHandler.c ****                 CyBle_HidscNotificationEventHandler((CYBLE_GATTC_HANDLE_VALUE_NTF_PARAM_T *)eventPa
1106:.\Generated_Source\PSoC4/BLE_1_eventHandler.c ****             }
1107:.\Generated_Source\PSoC4/BLE_1_eventHandler.c ****         #endif /* defined(CYBLE_HIDS_CLIENT) */
1108:.\Generated_Source\PSoC4/BLE_1_eventHandler.c ****         #ifdef CYBLE_HRS_CLIENT
1109:.\Generated_Source\PSoC4/BLE_1_eventHandler.c ****             if((cyBle_eventHandlerFlag & CYBLE_CALLBACK) != 0u)
1110:.\Generated_Source\PSoC4/BLE_1_eventHandler.c ****             {
1111:.\Generated_Source\PSoC4/BLE_1_eventHandler.c ****                 CyBle_HrscNotificationEventHandler((CYBLE_GATTC_HANDLE_VALUE_NTF_PARAM_T *)eventPar
1112:.\Generated_Source\PSoC4/BLE_1_eventHandler.c ****             }
1113:.\Generated_Source\PSoC4/BLE_1_eventHandler.c ****         #endif /* defined(CYBLE_HRS_CLIENT) */
1114:.\Generated_Source\PSoC4/BLE_1_eventHandler.c ****         #ifdef CYBLE_HTS_CLIENT
1115:.\Generated_Source\PSoC4/BLE_1_eventHandler.c ****             if((cyBle_eventHandlerFlag & CYBLE_CALLBACK) != 0u)
1116:.\Generated_Source\PSoC4/BLE_1_eventHandler.c ****             {
1117:.\Generated_Source\PSoC4/BLE_1_eventHandler.c ****                 CyBle_HtscNotificationEventHandler((CYBLE_GATTC_HANDLE_VALUE_NTF_PARAM_T *)eventPar
1118:.\Generated_Source\PSoC4/BLE_1_eventHandler.c ****             }
1119:.\Generated_Source\PSoC4/BLE_1_eventHandler.c ****         #endif /* defined(CYBLE_HTS_CLIENT) */
1120:.\Generated_Source\PSoC4/BLE_1_eventHandler.c ****         #ifdef CYBLE_LNS_CLIENT
1121:.\Generated_Source\PSoC4/BLE_1_eventHandler.c ****             if((cyBle_eventHandlerFlag & CYBLE_CALLBACK) != 0u)
1122:.\Generated_Source\PSoC4/BLE_1_eventHandler.c ****             {
1123:.\Generated_Source\PSoC4/BLE_1_eventHandler.c ****                 CyBle_LnscNotificationEventHandler((CYBLE_GATTC_HANDLE_VALUE_NTF_PARAM_T *)eventPar
1124:.\Generated_Source\PSoC4/BLE_1_eventHandler.c ****             }
1125:.\Generated_Source\PSoC4/BLE_1_eventHandler.c ****         #endif /* defined(CYBLE_LNS_CLIENT) */
1126:.\Generated_Source\PSoC4/BLE_1_eventHandler.c ****         #ifdef CYBLE_PASS_CLIENT
1127:.\Generated_Source\PSoC4/BLE_1_eventHandler.c ****             if((cyBle_eventHandlerFlag & CYBLE_CALLBACK) != 0u)
1128:.\Generated_Source\PSoC4/BLE_1_eventHandler.c ****             {
1129:.\Generated_Source\PSoC4/BLE_1_eventHandler.c ****                 CyBle_PasscNotificationEventHandler((CYBLE_GATTC_HANDLE_VALUE_NTF_PARAM_T *)eventPa
1130:.\Generated_Source\PSoC4/BLE_1_eventHandler.c ****             }
1131:.\Generated_Source\PSoC4/BLE_1_eventHandler.c ****         #endif /* defined(CYBLE_PASS_CLIENT) */
1132:.\Generated_Source\PSoC4/BLE_1_eventHandler.c ****         #ifdef CYBLE_RSCS_CLIENT
1133:.\Generated_Source\PSoC4/BLE_1_eventHandler.c ****             if((cyBle_eventHandlerFlag & CYBLE_CALLBACK) != 0u)
1134:.\Generated_Source\PSoC4/BLE_1_eventHandler.c ****             {
1135:.\Generated_Source\PSoC4/BLE_1_eventHandler.c ****                 CyBle_RscscNotificationEventHandler((CYBLE_GATTC_HANDLE_VALUE_NTF_PARAM_T *)eventPa
1136:.\Generated_Source\PSoC4/BLE_1_eventHandler.c ****             }
1137:.\Generated_Source\PSoC4/BLE_1_eventHandler.c ****         #endif /* defined(CYBLE_RSCS_CLIENT) */
1138:.\Generated_Source\PSoC4/BLE_1_eventHandler.c ****         #ifdef CYBLE_SCPS_CLIENT
ARM GAS  C:\Users\mliha\AppData\Local\Temp\cc428Uxc.s 			page 36


1139:.\Generated_Source\PSoC4/BLE_1_eventHandler.c ****             if((cyBle_eventHandlerFlag & CYBLE_CALLBACK) != 0u)
1140:.\Generated_Source\PSoC4/BLE_1_eventHandler.c ****             {
1141:.\Generated_Source\PSoC4/BLE_1_eventHandler.c ****                 CyBle_ScpscNotificationEventHandler((CYBLE_GATTC_HANDLE_VALUE_NTF_PARAM_T *)eventPa
1142:.\Generated_Source\PSoC4/BLE_1_eventHandler.c ****             }
1143:.\Generated_Source\PSoC4/BLE_1_eventHandler.c ****         #endif /* defined(CYBLE_SCPS_CLIENT) */
1144:.\Generated_Source\PSoC4/BLE_1_eventHandler.c ****         #ifdef CYBLE_TPS_CLIENT
1145:.\Generated_Source\PSoC4/BLE_1_eventHandler.c ****             if((cyBle_eventHandlerFlag & CYBLE_CALLBACK) != 0u)
1146:.\Generated_Source\PSoC4/BLE_1_eventHandler.c ****             {
1147:.\Generated_Source\PSoC4/BLE_1_eventHandler.c ****                 CyBle_TpscNotificationEventHandler((CYBLE_GATTC_HANDLE_VALUE_NTF_PARAM_T *)eventPar
1148:.\Generated_Source\PSoC4/BLE_1_eventHandler.c ****             }
1149:.\Generated_Source\PSoC4/BLE_1_eventHandler.c ****         #endif /* defined(CYBLE_TPS_CLIENT) */
1150:.\Generated_Source\PSoC4/BLE_1_eventHandler.c ****             break;
1151:.\Generated_Source\PSoC4/BLE_1_eventHandler.c **** 
1152:.\Generated_Source\PSoC4/BLE_1_eventHandler.c ****         case CYBLE_EVT_GATTC_HANDLE_VALUE_IND:
1153:.\Generated_Source\PSoC4/BLE_1_eventHandler.c ****             CyBle_GattcIndicationEventHandler((CYBLE_GATTC_HANDLE_VALUE_IND_PARAM_T *)eventParam);
1154:.\Generated_Source\PSoC4/BLE_1_eventHandler.c ****         #ifdef CYBLE_BLS_CLIENT
1155:.\Generated_Source\PSoC4/BLE_1_eventHandler.c ****             if((cyBle_eventHandlerFlag & CYBLE_CALLBACK) != 0u)
1156:.\Generated_Source\PSoC4/BLE_1_eventHandler.c ****             {
1157:.\Generated_Source\PSoC4/BLE_1_eventHandler.c ****                 CyBle_BlscIndicationEventHandler((CYBLE_GATTC_HANDLE_VALUE_IND_PARAM_T *)eventParam
1158:.\Generated_Source\PSoC4/BLE_1_eventHandler.c ****             }
1159:.\Generated_Source\PSoC4/BLE_1_eventHandler.c ****         #endif /* defined(CYBLE_BLS_CLIENT) */
1160:.\Generated_Source\PSoC4/BLE_1_eventHandler.c ****         #ifdef CYBLE_CPS_CLIENT
1161:.\Generated_Source\PSoC4/BLE_1_eventHandler.c ****             if((cyBle_eventHandlerFlag & CYBLE_CALLBACK) != 0u)
1162:.\Generated_Source\PSoC4/BLE_1_eventHandler.c ****             {
1163:.\Generated_Source\PSoC4/BLE_1_eventHandler.c ****                 CyBle_CpscIndicationEventHandler((CYBLE_GATTC_HANDLE_VALUE_IND_PARAM_T *)eventParam
1164:.\Generated_Source\PSoC4/BLE_1_eventHandler.c ****             }
1165:.\Generated_Source\PSoC4/BLE_1_eventHandler.c ****         #endif /* defined(CYBLE_CPS_CLIENT) */
1166:.\Generated_Source\PSoC4/BLE_1_eventHandler.c ****         #ifdef CYBLE_CSCS_CLIENT
1167:.\Generated_Source\PSoC4/BLE_1_eventHandler.c ****             if((cyBle_eventHandlerFlag & CYBLE_CALLBACK) != 0u)
1168:.\Generated_Source\PSoC4/BLE_1_eventHandler.c ****             {
1169:.\Generated_Source\PSoC4/BLE_1_eventHandler.c ****                 CyBle_CscscIndicationEventHandler((CYBLE_GATTC_HANDLE_VALUE_IND_PARAM_T *)eventPara
1170:.\Generated_Source\PSoC4/BLE_1_eventHandler.c ****             }
1171:.\Generated_Source\PSoC4/BLE_1_eventHandler.c ****         #endif /* defined(CYBLE_CSCS_CLIENT) */
1172:.\Generated_Source\PSoC4/BLE_1_eventHandler.c ****         #ifdef CYBLE_GLS_CLIENT
1173:.\Generated_Source\PSoC4/BLE_1_eventHandler.c ****             if((cyBle_eventHandlerFlag & CYBLE_CALLBACK) != 0u)
1174:.\Generated_Source\PSoC4/BLE_1_eventHandler.c ****             {
1175:.\Generated_Source\PSoC4/BLE_1_eventHandler.c ****                 CyBle_GlscIndicationEventHandler((CYBLE_GATTC_HANDLE_VALUE_IND_PARAM_T *)eventParam
1176:.\Generated_Source\PSoC4/BLE_1_eventHandler.c ****             }
1177:.\Generated_Source\PSoC4/BLE_1_eventHandler.c ****         #endif /* defined(CYBLE_GLS_CLIENT) */
1178:.\Generated_Source\PSoC4/BLE_1_eventHandler.c ****         #ifdef CYBLE_HTS_CLIENT
1179:.\Generated_Source\PSoC4/BLE_1_eventHandler.c ****             if((cyBle_eventHandlerFlag & CYBLE_CALLBACK) != 0u)
1180:.\Generated_Source\PSoC4/BLE_1_eventHandler.c ****             {
1181:.\Generated_Source\PSoC4/BLE_1_eventHandler.c ****                 CyBle_HtscIndicationEventHandler((CYBLE_GATTC_HANDLE_VALUE_IND_PARAM_T *)eventParam
1182:.\Generated_Source\PSoC4/BLE_1_eventHandler.c ****             }
1183:.\Generated_Source\PSoC4/BLE_1_eventHandler.c ****         #endif /* defined(CYBLE_HTS_CLIENT) */
1184:.\Generated_Source\PSoC4/BLE_1_eventHandler.c ****         #ifdef CYBLE_LNS_CLIENT
1185:.\Generated_Source\PSoC4/BLE_1_eventHandler.c ****             if((cyBle_eventHandlerFlag & CYBLE_CALLBACK) != 0u)
1186:.\Generated_Source\PSoC4/BLE_1_eventHandler.c ****             {
1187:.\Generated_Source\PSoC4/BLE_1_eventHandler.c ****                 CyBle_LnscIndicationEventHandler((CYBLE_GATTC_HANDLE_VALUE_IND_PARAM_T *)eventParam
1188:.\Generated_Source\PSoC4/BLE_1_eventHandler.c ****             }
1189:.\Generated_Source\PSoC4/BLE_1_eventHandler.c ****         #endif /* defined(CYBLE_LNS_CLIENT) */
1190:.\Generated_Source\PSoC4/BLE_1_eventHandler.c ****         #ifdef CYBLE_RSCS_CLIENT
1191:.\Generated_Source\PSoC4/BLE_1_eventHandler.c ****             if((cyBle_eventHandlerFlag & CYBLE_CALLBACK) != 0u)
1192:.\Generated_Source\PSoC4/BLE_1_eventHandler.c ****             {
1193:.\Generated_Source\PSoC4/BLE_1_eventHandler.c ****                 CyBle_RscscIndicationEventHandler((CYBLE_GATTC_HANDLE_VALUE_IND_PARAM_T *)eventPara
1194:.\Generated_Source\PSoC4/BLE_1_eventHandler.c ****             }
1195:.\Generated_Source\PSoC4/BLE_1_eventHandler.c ****         #endif /* defined(CYBLE_RSCS_CLIENT) */
ARM GAS  C:\Users\mliha\AppData\Local\Temp\cc428Uxc.s 			page 37


1196:.\Generated_Source\PSoC4/BLE_1_eventHandler.c ****             /* Respond with a Handle Value Confirmation when request handled */
1197:.\Generated_Source\PSoC4/BLE_1_eventHandler.c ****             if((cyBle_eventHandlerFlag & CYBLE_CALLBACK) == 0u)
1198:.\Generated_Source\PSoC4/BLE_1_eventHandler.c ****             {
1199:.\Generated_Source\PSoC4/BLE_1_eventHandler.c ****                 (void)CyBle_GattcConfirmation(((CYBLE_GATTC_HANDLE_VALUE_IND_PARAM_T *)eventParam)-
1200:.\Generated_Source\PSoC4/BLE_1_eventHandler.c ****             }
1201:.\Generated_Source\PSoC4/BLE_1_eventHandler.c ****             break;
1202:.\Generated_Source\PSoC4/BLE_1_eventHandler.c ****         
1203:.\Generated_Source\PSoC4/BLE_1_eventHandler.c ****         case CYBLE_EVT_GATTC_READ_RSP:
1204:.\Generated_Source\PSoC4/BLE_1_eventHandler.c ****             #ifdef CYBLE_ANS_CLIENT
1205:.\Generated_Source\PSoC4/BLE_1_eventHandler.c ****                 CyBle_AnscReadResponseEventHandler((CYBLE_GATTC_READ_RSP_PARAM_T *)eventParam);
1206:.\Generated_Source\PSoC4/BLE_1_eventHandler.c ****             #endif /* CYBLE_ANS_CLIENT */
1207:.\Generated_Source\PSoC4/BLE_1_eventHandler.c ****             #ifdef CYBLE_BAS_CLIENT
1208:.\Generated_Source\PSoC4/BLE_1_eventHandler.c ****                 if((cyBle_eventHandlerFlag & CYBLE_CALLBACK) != 0u)
1209:.\Generated_Source\PSoC4/BLE_1_eventHandler.c ****                 {
1210:.\Generated_Source\PSoC4/BLE_1_eventHandler.c ****                     CyBle_BascReadResponseEventHandler((CYBLE_GATTC_READ_RSP_PARAM_T *)eventParam);
1211:.\Generated_Source\PSoC4/BLE_1_eventHandler.c ****                 }
1212:.\Generated_Source\PSoC4/BLE_1_eventHandler.c ****             #endif /* CYBLE_BAS_CLIENT */
1213:.\Generated_Source\PSoC4/BLE_1_eventHandler.c ****             #ifdef CYBLE_BLS_CLIENT
1214:.\Generated_Source\PSoC4/BLE_1_eventHandler.c ****                 if((cyBle_eventHandlerFlag & CYBLE_CALLBACK) != 0u)
1215:.\Generated_Source\PSoC4/BLE_1_eventHandler.c ****                 {
1216:.\Generated_Source\PSoC4/BLE_1_eventHandler.c ****                     CyBle_BlscReadResponseEventHandler((CYBLE_GATTC_READ_RSP_PARAM_T *)eventParam);
1217:.\Generated_Source\PSoC4/BLE_1_eventHandler.c ****                 }
1218:.\Generated_Source\PSoC4/BLE_1_eventHandler.c ****             #endif /* CYBLE_BLS_CLIENT */
1219:.\Generated_Source\PSoC4/BLE_1_eventHandler.c ****             #ifdef CYBLE_CPS_CLIENT
1220:.\Generated_Source\PSoC4/BLE_1_eventHandler.c ****                 if((cyBle_eventHandlerFlag & CYBLE_CALLBACK) != 0u)
1221:.\Generated_Source\PSoC4/BLE_1_eventHandler.c ****                 {
1222:.\Generated_Source\PSoC4/BLE_1_eventHandler.c ****                     CyBle_CpscReadResponseEventHandler((CYBLE_GATTC_READ_RSP_PARAM_T *)eventParam);
1223:.\Generated_Source\PSoC4/BLE_1_eventHandler.c ****                 }
1224:.\Generated_Source\PSoC4/BLE_1_eventHandler.c ****             #endif /* CYBLE_CPS_CLIENT */
1225:.\Generated_Source\PSoC4/BLE_1_eventHandler.c ****             #ifdef CYBLE_CSCS_CLIENT
1226:.\Generated_Source\PSoC4/BLE_1_eventHandler.c ****                 if((cyBle_eventHandlerFlag & CYBLE_CALLBACK) != 0u)
1227:.\Generated_Source\PSoC4/BLE_1_eventHandler.c ****                 {
1228:.\Generated_Source\PSoC4/BLE_1_eventHandler.c ****                     CyBle_CscscReadResponseEventHandler((CYBLE_GATTC_READ_RSP_PARAM_T *)eventParam)
1229:.\Generated_Source\PSoC4/BLE_1_eventHandler.c ****                 }
1230:.\Generated_Source\PSoC4/BLE_1_eventHandler.c ****             #endif /* CYBLE_CSCS_CLIENT */
1231:.\Generated_Source\PSoC4/BLE_1_eventHandler.c ****             #ifdef CYBLE_CTS_CLIENT
1232:.\Generated_Source\PSoC4/BLE_1_eventHandler.c ****                 if((cyBle_eventHandlerFlag & CYBLE_CALLBACK) != 0u)
1233:.\Generated_Source\PSoC4/BLE_1_eventHandler.c ****                 {
1234:.\Generated_Source\PSoC4/BLE_1_eventHandler.c ****                     CyBle_CtscReadResponseEventHandler((CYBLE_GATTC_READ_RSP_PARAM_T *)eventParam);
1235:.\Generated_Source\PSoC4/BLE_1_eventHandler.c ****                 }
1236:.\Generated_Source\PSoC4/BLE_1_eventHandler.c ****             #endif /* CYBLE_BAS_CLIENT */
1237:.\Generated_Source\PSoC4/BLE_1_eventHandler.c ****             #ifdef CYBLE_DIS_CLIENT
1238:.\Generated_Source\PSoC4/BLE_1_eventHandler.c ****                 if((cyBle_eventHandlerFlag & CYBLE_CALLBACK) != 0u)
1239:.\Generated_Source\PSoC4/BLE_1_eventHandler.c ****                 {
1240:.\Generated_Source\PSoC4/BLE_1_eventHandler.c ****                     CyBle_DiscReadResponseEventHandler((CYBLE_GATTC_READ_RSP_PARAM_T *)eventParam);
1241:.\Generated_Source\PSoC4/BLE_1_eventHandler.c ****                 }
1242:.\Generated_Source\PSoC4/BLE_1_eventHandler.c ****             #endif /* CYBLE_DIS_CLIENT */
1243:.\Generated_Source\PSoC4/BLE_1_eventHandler.c ****             #ifdef CYBLE_GLS_CLIENT
1244:.\Generated_Source\PSoC4/BLE_1_eventHandler.c ****                 if((cyBle_eventHandlerFlag & CYBLE_CALLBACK) != 0u)
1245:.\Generated_Source\PSoC4/BLE_1_eventHandler.c ****                 {
1246:.\Generated_Source\PSoC4/BLE_1_eventHandler.c ****                     CyBle_GlscReadResponseEventHandler((CYBLE_GATTC_READ_RSP_PARAM_T *)eventParam);
1247:.\Generated_Source\PSoC4/BLE_1_eventHandler.c ****                 }
1248:.\Generated_Source\PSoC4/BLE_1_eventHandler.c ****             #endif /* CYBLE_GLS_CLIENT */
1249:.\Generated_Source\PSoC4/BLE_1_eventHandler.c ****             #ifdef CYBLE_HIDS_CLIENT
1250:.\Generated_Source\PSoC4/BLE_1_eventHandler.c ****                 if((cyBle_eventHandlerFlag & CYBLE_CALLBACK) != 0u)
1251:.\Generated_Source\PSoC4/BLE_1_eventHandler.c ****                 {
1252:.\Generated_Source\PSoC4/BLE_1_eventHandler.c ****                     CyBle_HidscReadResponseEventHandler((CYBLE_GATTC_READ_RSP_PARAM_T *)eventParam)
ARM GAS  C:\Users\mliha\AppData\Local\Temp\cc428Uxc.s 			page 38


1253:.\Generated_Source\PSoC4/BLE_1_eventHandler.c ****                 }
1254:.\Generated_Source\PSoC4/BLE_1_eventHandler.c ****             #endif /* CYBLE_HIDS_CLIENT */
1255:.\Generated_Source\PSoC4/BLE_1_eventHandler.c ****             #ifdef CYBLE_HRS_CLIENT
1256:.\Generated_Source\PSoC4/BLE_1_eventHandler.c ****                 if((cyBle_eventHandlerFlag & CYBLE_CALLBACK) != 0u)
1257:.\Generated_Source\PSoC4/BLE_1_eventHandler.c ****                 {
1258:.\Generated_Source\PSoC4/BLE_1_eventHandler.c ****                     CyBle_HrscReadResponseEventHandler((CYBLE_GATTC_READ_RSP_PARAM_T *)eventParam);
1259:.\Generated_Source\PSoC4/BLE_1_eventHandler.c ****                 }
1260:.\Generated_Source\PSoC4/BLE_1_eventHandler.c ****             #endif /* CYBLE_HRS_CLIENT */
1261:.\Generated_Source\PSoC4/BLE_1_eventHandler.c ****             #ifdef CYBLE_HTS_CLIENT
1262:.\Generated_Source\PSoC4/BLE_1_eventHandler.c ****                 if((cyBle_eventHandlerFlag & CYBLE_CALLBACK) != 0u)
1263:.\Generated_Source\PSoC4/BLE_1_eventHandler.c ****                 {
1264:.\Generated_Source\PSoC4/BLE_1_eventHandler.c ****                     CyBle_HtscReadResponseEventHandler((CYBLE_GATTC_READ_RSP_PARAM_T *)eventParam);
1265:.\Generated_Source\PSoC4/BLE_1_eventHandler.c ****                 }
1266:.\Generated_Source\PSoC4/BLE_1_eventHandler.c ****             #endif /* CYBLE_HTS_CLIENT */
1267:.\Generated_Source\PSoC4/BLE_1_eventHandler.c ****             #ifdef CYBLE_LLS_CLIENT
1268:.\Generated_Source\PSoC4/BLE_1_eventHandler.c ****                 if((cyBle_eventHandlerFlag & CYBLE_CALLBACK) != 0u)
1269:.\Generated_Source\PSoC4/BLE_1_eventHandler.c ****                 {
1270:.\Generated_Source\PSoC4/BLE_1_eventHandler.c ****                     CyBle_LlscReadResponseEventHandler((CYBLE_GATTC_READ_RSP_PARAM_T *)eventParam);
1271:.\Generated_Source\PSoC4/BLE_1_eventHandler.c ****                 }
1272:.\Generated_Source\PSoC4/BLE_1_eventHandler.c ****             #endif /* CYBLE_LLS_CLIENT */
1273:.\Generated_Source\PSoC4/BLE_1_eventHandler.c ****             #ifdef CYBLE_LNS_CLIENT
1274:.\Generated_Source\PSoC4/BLE_1_eventHandler.c ****                 if((cyBle_eventHandlerFlag & CYBLE_CALLBACK) != 0u)
1275:.\Generated_Source\PSoC4/BLE_1_eventHandler.c ****                 {
1276:.\Generated_Source\PSoC4/BLE_1_eventHandler.c ****                     CyBle_LnscReadResponseEventHandler((CYBLE_GATTC_READ_RSP_PARAM_T *)eventParam);
1277:.\Generated_Source\PSoC4/BLE_1_eventHandler.c ****                 }
1278:.\Generated_Source\PSoC4/BLE_1_eventHandler.c ****             #endif /* CYBLE_LNS_CLIENT */
1279:.\Generated_Source\PSoC4/BLE_1_eventHandler.c ****             #ifdef CYBLE_NDCS_CLIENT
1280:.\Generated_Source\PSoC4/BLE_1_eventHandler.c ****                 if((cyBle_eventHandlerFlag & CYBLE_CALLBACK) != 0u)
1281:.\Generated_Source\PSoC4/BLE_1_eventHandler.c ****                 {
1282:.\Generated_Source\PSoC4/BLE_1_eventHandler.c ****                     CyBle_NdcscReadResponseEventHandler((CYBLE_GATTC_READ_RSP_PARAM_T *)eventParam)
1283:.\Generated_Source\PSoC4/BLE_1_eventHandler.c ****                 }
1284:.\Generated_Source\PSoC4/BLE_1_eventHandler.c ****             #endif /* CYBLE_NDCS_CLIENT */
1285:.\Generated_Source\PSoC4/BLE_1_eventHandler.c ****             #ifdef CYBLE_PASS_CLIENT
1286:.\Generated_Source\PSoC4/BLE_1_eventHandler.c ****                 if((cyBle_eventHandlerFlag & CYBLE_CALLBACK) != 0u)
1287:.\Generated_Source\PSoC4/BLE_1_eventHandler.c ****                 {
1288:.\Generated_Source\PSoC4/BLE_1_eventHandler.c ****                     CyBle_PasscReadResponseEventHandler((CYBLE_GATTC_READ_RSP_PARAM_T *)eventParam)
1289:.\Generated_Source\PSoC4/BLE_1_eventHandler.c ****                 }
1290:.\Generated_Source\PSoC4/BLE_1_eventHandler.c ****             #endif /* CYBLE_PASS_CLIENT */
1291:.\Generated_Source\PSoC4/BLE_1_eventHandler.c ****             #ifdef CYBLE_RSCS_CLIENT
1292:.\Generated_Source\PSoC4/BLE_1_eventHandler.c ****                 if((cyBle_eventHandlerFlag & CYBLE_CALLBACK) != 0u)
1293:.\Generated_Source\PSoC4/BLE_1_eventHandler.c ****                 {
1294:.\Generated_Source\PSoC4/BLE_1_eventHandler.c ****                     CyBle_RscscReadResponseEventHandler((CYBLE_GATTC_READ_RSP_PARAM_T *)eventParam)
1295:.\Generated_Source\PSoC4/BLE_1_eventHandler.c ****                 }
1296:.\Generated_Source\PSoC4/BLE_1_eventHandler.c ****             #endif /* CYBLE_RSCS_CLIENT */
1297:.\Generated_Source\PSoC4/BLE_1_eventHandler.c ****             #ifdef CYBLE_RTUS_CLIENT
1298:.\Generated_Source\PSoC4/BLE_1_eventHandler.c ****                 if((cyBle_eventHandlerFlag & CYBLE_CALLBACK) != 0u)
1299:.\Generated_Source\PSoC4/BLE_1_eventHandler.c ****                 {
1300:.\Generated_Source\PSoC4/BLE_1_eventHandler.c ****                     CyBle_RtuscReadResponseEventHandler((CYBLE_GATTC_READ_RSP_PARAM_T *)eventParam)
1301:.\Generated_Source\PSoC4/BLE_1_eventHandler.c ****                 }
1302:.\Generated_Source\PSoC4/BLE_1_eventHandler.c ****             #endif /* CYBLE_RTUS_CLIENT */
1303:.\Generated_Source\PSoC4/BLE_1_eventHandler.c ****             #ifdef CYBLE_SCPS_CLIENT
1304:.\Generated_Source\PSoC4/BLE_1_eventHandler.c ****                 if((cyBle_eventHandlerFlag & CYBLE_CALLBACK) != 0u)
1305:.\Generated_Source\PSoC4/BLE_1_eventHandler.c ****                 {
1306:.\Generated_Source\PSoC4/BLE_1_eventHandler.c ****                     CyBle_ScpscReadResponseEventHandler((CYBLE_GATTC_READ_RSP_PARAM_T *)eventParam)
1307:.\Generated_Source\PSoC4/BLE_1_eventHandler.c ****                 }
1308:.\Generated_Source\PSoC4/BLE_1_eventHandler.c ****             #endif /* CYBLE_SCPS_CLIENT */
1309:.\Generated_Source\PSoC4/BLE_1_eventHandler.c ****             #ifdef CYBLE_TPS_CLIENT
ARM GAS  C:\Users\mliha\AppData\Local\Temp\cc428Uxc.s 			page 39


1310:.\Generated_Source\PSoC4/BLE_1_eventHandler.c ****                 if((cyBle_eventHandlerFlag & CYBLE_CALLBACK) != 0u)
1311:.\Generated_Source\PSoC4/BLE_1_eventHandler.c ****                 {
1312:.\Generated_Source\PSoC4/BLE_1_eventHandler.c ****                     CyBle_TpscReadResponseEventHandler((CYBLE_GATTC_READ_RSP_PARAM_T *)eventParam);
1313:.\Generated_Source\PSoC4/BLE_1_eventHandler.c ****                 }
1314:.\Generated_Source\PSoC4/BLE_1_eventHandler.c ****             #endif /* CYBLE_TPS_CLIENT */
1315:.\Generated_Source\PSoC4/BLE_1_eventHandler.c ****             break;
1316:.\Generated_Source\PSoC4/BLE_1_eventHandler.c **** 
1317:.\Generated_Source\PSoC4/BLE_1_eventHandler.c ****         case CYBLE_EVT_GATTC_WRITE_RSP:
1318:.\Generated_Source\PSoC4/BLE_1_eventHandler.c ****             CyBle_GattcWriteResponseEventHandler((CYBLE_CONN_HANDLE_T *)eventParam);
1319:.\Generated_Source\PSoC4/BLE_1_eventHandler.c ****             break;
1320:.\Generated_Source\PSoC4/BLE_1_eventHandler.c ****             
1321:.\Generated_Source\PSoC4/BLE_1_eventHandler.c ****     #endif /* CYBLE_GATT_ROLE_CLIENT */
1322:.\Generated_Source\PSoC4/BLE_1_eventHandler.c **** 
1323:.\Generated_Source\PSoC4/BLE_1_eventHandler.c ****     #if((CYBLE_GAP_ROLE_PERIPHERAL || CYBLE_GAP_ROLE_CENTRAL) && (CYBLE_BONDING_REQUIREMENT == CYBL
1324:.\Generated_Source\PSoC4/BLE_1_eventHandler.c **** 
1325:.\Generated_Source\PSoC4/BLE_1_eventHandler.c ****         case CYBLE_EVT_PENDING_FLASH_WRITE:
1326:.\Generated_Source\PSoC4/BLE_1_eventHandler.c ****             cyBle_pendingFlashWrite |= CYBLE_PENDING_STACK_FLASH_WRITE_BIT;
1327:.\Generated_Source\PSoC4/BLE_1_eventHandler.c ****             break;
1328:.\Generated_Source\PSoC4/BLE_1_eventHandler.c ****         
1329:.\Generated_Source\PSoC4/BLE_1_eventHandler.c ****     #endif  /* (CYBLE_BONDING_REQUIREMENT == CYBLE_BONDING_YES) */
1330:.\Generated_Source\PSoC4/BLE_1_eventHandler.c ****         default:
1331:.\Generated_Source\PSoC4/BLE_1_eventHandler.c ****             break;
 856              		.loc 1 1331 0
 857 0218 C046     		mov	r8, r8
 858              	.L41:
1332:.\Generated_Source\PSoC4/BLE_1_eventHandler.c ****     }
1333:.\Generated_Source\PSoC4/BLE_1_eventHandler.c **** 
1334:.\Generated_Source\PSoC4/BLE_1_eventHandler.c ****     if(0u != (cyBle_eventHandlerFlag & (CYBLE_CALLBACK | CYBLE_ENABLE_ALL_EVENTS))) 
 859              		.loc 1 1334 0
 860 021a 0D4B     		ldr	r3, .L51
 861 021c 1B78     		ldrb	r3, [r3]
 862 021e DBB2     		uxtb	r3, r3
 863 0220 1A1C     		mov	r2, r3
 864 0222 1123     		mov	r3, #17
 865 0224 1340     		and	r3, r2
 866 0226 0FD0     		beq	.L21
1335:.\Generated_Source\PSoC4/BLE_1_eventHandler.c ****     {
1336:.\Generated_Source\PSoC4/BLE_1_eventHandler.c ****         cyBle_eventHandlerFlag &= (uint8)~CYBLE_CALLBACK;
 867              		.loc 1 1336 0
 868 0228 094B     		ldr	r3, .L51
 869 022a 1B78     		ldrb	r3, [r3]
 870 022c DBB2     		uxtb	r3, r3
 871 022e 0122     		mov	r2, #1
 872 0230 9343     		bic	r3, r2
 873 0232 DAB2     		uxtb	r2, r3
 874 0234 064B     		ldr	r3, .L51
 875 0236 1A70     		strb	r2, [r3]
1337:.\Generated_Source\PSoC4/BLE_1_eventHandler.c ****         CyBle_ApplCallback((uint32)eventCode, eventParam);
 876              		.loc 1 1337 0
 877 0238 124B     		ldr	r3, .L51+52
 878 023a 1B68     		ldr	r3, [r3]
 879 023c FA1D     		add	r2, r7, #7
 880 023e 1178     		ldrb	r1, [r2]
 881 0240 3A68     		ldr	r2, [r7]
 882 0242 081C     		mov	r0, r1
 883 0244 111C     		mov	r1, r2
 884 0246 9847     		blx	r3
ARM GAS  C:\Users\mliha\AppData\Local\Temp\cc428Uxc.s 			page 40


 885              	.L21:
1338:.\Generated_Source\PSoC4/BLE_1_eventHandler.c ****     }
1339:.\Generated_Source\PSoC4/BLE_1_eventHandler.c **** 
1340:.\Generated_Source\PSoC4/BLE_1_eventHandler.c **** }
 886              		.loc 1 1340 0
 887 0248 BD46     		mov	sp, r7
 888 024a 04B0     		add	sp, sp, #16
 889              		@ sp needed
 890 024c 80BD     		pop	{r7, pc}
 891              	.L52:
 892 024e C046     		.align	2
 893              	.L51:
 894 0250 00000000 		.word	cyBle_eventHandlerFlag
 895 0254 00000000 		.word	.L24
 896 0258 00000000 		.word	cyBle_sflashDeviceAddress
 897 025c 7CF1FF0F 		.word	268431740
 898 0260 00000000 		.word	cyBle_deviceAddress
 899 0264 7DF1FF0F 		.word	268431741
 900 0268 7BF1FF0F 		.word	268431739
 901 026c 00000000 		.word	cyBle_state
 902 0270 00000000 		.word	cyBle_busStatus
 903 0274 00000000 		.word	cyBle_authInfo
 904 0278 00000000 		.word	cyBle_connHandle
 905 027c 00000000 		.word	cyBle_attValuesCCCDFlashMemory
 906 0280 00000000 		.word	cyBle_attValuesCCCD
 907 0284 00000000 		.word	CyBle_ApplCallback
 908              		.cfi_endproc
 909              	.LFE10:
 910              		.size	CyBle_EventHandler, .-CyBle_EventHandler
 911              		.text
 912              	.Letext0:
 913              		.file 2 ".\\Generated_Source\\PSoC4\\cytypes.h"
 914              		.file 3 ".\\Generated_Source\\PSoC4\\BLE_1_Stack.h"
 915              		.file 4 ".\\Generated_Source\\PSoC4\\BLE_1_StackHostMain.h"
 916              		.file 5 ".\\Generated_Source\\PSoC4\\BLE_1_StackGap.h"
 917              		.file 6 ".\\Generated_Source\\PSoC4\\BLE_1_StackGatt.h"
 918              		.file 7 ".\\Generated_Source\\PSoC4\\BLE_1_StackGattServer.h"
 919              		.file 8 ".\\Generated_Source\\PSoC4\\BLE_1.h"
 920              		.file 9 ".\\Generated_Source\\PSoC4\\BLE_1_dis.h"
 921              		.file 10 ".\\Generated_Source\\PSoC4\\BLE_1_hrs.h"
 922              		.file 11 ".\\Generated_Source\\PSoC4\\BLE_1_eventHandler.h"
 923              		.file 12 ".\\Generated_Source\\PSoC4\\BLE_1_gatt.h"
 924              		.section	.debug_info,"",%progbits
 925              	.Ldebug_info0:
 926 0000 920A0000 		.4byte	0xa92
 927 0004 0400     		.2byte	0x4
 928 0006 00000000 		.4byte	.Ldebug_abbrev0
 929 000a 04       		.byte	0x4
 930 000b 01       		.uleb128 0x1
 931 000c 250F0000 		.4byte	.LASF248
 932 0010 01       		.byte	0x1
 933 0011 C4030000 		.4byte	.LASF249
 934 0015 FA040000 		.4byte	.LASF250
 935 0019 00000000 		.4byte	.Ldebug_ranges0+0
 936 001d 00000000 		.4byte	0
 937 0021 00000000 		.4byte	.Ldebug_line0
 938 0025 02       		.uleb128 0x2
ARM GAS  C:\Users\mliha\AppData\Local\Temp\cc428Uxc.s 			page 41


 939 0026 01       		.byte	0x1
 940 0027 06       		.byte	0x6
 941 0028 A4050000 		.4byte	.LASF0
 942 002c 02       		.uleb128 0x2
 943 002d 01       		.byte	0x1
 944 002e 08       		.byte	0x8
 945 002f AA060000 		.4byte	.LASF1
 946 0033 02       		.uleb128 0x2
 947 0034 02       		.byte	0x2
 948 0035 05       		.byte	0x5
 949 0036 7A150000 		.4byte	.LASF2
 950 003a 02       		.uleb128 0x2
 951 003b 02       		.byte	0x2
 952 003c 07       		.byte	0x7
 953 003d 9B180000 		.4byte	.LASF3
 954 0041 02       		.uleb128 0x2
 955 0042 04       		.byte	0x4
 956 0043 05       		.byte	0x5
 957 0044 29040000 		.4byte	.LASF4
 958 0048 02       		.uleb128 0x2
 959 0049 04       		.byte	0x4
 960 004a 07       		.byte	0x7
 961 004b 170B0000 		.4byte	.LASF5
 962 004f 02       		.uleb128 0x2
 963 0050 08       		.byte	0x8
 964 0051 05       		.byte	0x5
 965 0052 200D0000 		.4byte	.LASF6
 966 0056 02       		.uleb128 0x2
 967 0057 08       		.byte	0x8
 968 0058 07       		.byte	0x7
 969 0059 C2120000 		.4byte	.LASF7
 970 005d 03       		.uleb128 0x3
 971 005e 04       		.byte	0x4
 972 005f 05       		.byte	0x5
 973 0060 696E7400 		.ascii	"int\000"
 974 0064 02       		.uleb128 0x2
 975 0065 04       		.byte	0x4
 976 0066 07       		.byte	0x7
 977 0067 840E0000 		.4byte	.LASF8
 978 006b 04       		.uleb128 0x4
 979 006c 1C150000 		.4byte	.LASF9
 980 0070 02       		.byte	0x2
 981 0071 A1       		.byte	0xa1
 982 0072 2C000000 		.4byte	0x2c
 983 0076 04       		.uleb128 0x4
 984 0077 D2190000 		.4byte	.LASF10
 985 007b 02       		.byte	0x2
 986 007c A2       		.byte	0xa2
 987 007d 3A000000 		.4byte	0x3a
 988 0081 04       		.uleb128 0x4
 989 0082 D4000000 		.4byte	.LASF11
 990 0086 02       		.byte	0x2
 991 0087 A3       		.byte	0xa3
 992 0088 48000000 		.4byte	0x48
 993 008c 02       		.uleb128 0x2
 994 008d 04       		.byte	0x4
 995 008e 04       		.byte	0x4
ARM GAS  C:\Users\mliha\AppData\Local\Temp\cc428Uxc.s 			page 42


 996 008f 1C0E0000 		.4byte	.LASF12
 997 0093 02       		.uleb128 0x2
 998 0094 08       		.byte	0x8
 999 0095 04       		.byte	0x4
 1000 0096 740D0000 		.4byte	.LASF13
 1001 009a 02       		.uleb128 0x2
 1002 009b 01       		.byte	0x1
 1003 009c 08       		.byte	0x8
 1004 009d 8F070000 		.4byte	.LASF14
 1005 00a1 05       		.uleb128 0x5
 1006 00a2 6B000000 		.4byte	0x6b
 1007 00a6 02       		.uleb128 0x2
 1008 00a7 04       		.byte	0x4
 1009 00a8 07       		.byte	0x7
 1010 00a9 15000000 		.4byte	.LASF15
 1011 00ad 06       		.uleb128 0x6
 1012 00ae 04       		.byte	0x4
 1013 00af 07       		.uleb128 0x7
 1014 00b0 01       		.byte	0x1
 1015 00b1 03       		.byte	0x3
 1016 00b2 52       		.byte	0x52
 1017 00b3 1F020000 		.4byte	0x21f
 1018 00b7 08       		.uleb128 0x8
 1019 00b8 17080000 		.4byte	.LASF16
 1020 00bc 00       		.sleb128 0
 1021 00bd 08       		.uleb128 0x8
 1022 00be 74040000 		.4byte	.LASF17
 1023 00c2 01       		.sleb128 1
 1024 00c3 08       		.uleb128 0x8
 1025 00c4 F7120000 		.4byte	.LASF18
 1026 00c8 02       		.sleb128 2
 1027 00c9 08       		.uleb128 0x8
 1028 00ca E5050000 		.4byte	.LASF19
 1029 00ce 03       		.sleb128 3
 1030 00cf 08       		.uleb128 0x8
 1031 00d0 18190000 		.4byte	.LASF20
 1032 00d4 04       		.sleb128 4
 1033 00d5 08       		.uleb128 0x8
 1034 00d6 7D170000 		.4byte	.LASF21
 1035 00da 05       		.sleb128 5
 1036 00db 08       		.uleb128 0x8
 1037 00dc 83160000 		.4byte	.LASF22
 1038 00e0 20       		.sleb128 32
 1039 00e1 08       		.uleb128 0x8
 1040 00e2 F4020000 		.4byte	.LASF23
 1041 00e6 21       		.sleb128 33
 1042 00e7 08       		.uleb128 0x8
 1043 00e8 860C0000 		.4byte	.LASF24
 1044 00ec 22       		.sleb128 34
 1045 00ed 08       		.uleb128 0x8
 1046 00ee C4100000 		.4byte	.LASF25
 1047 00f2 23       		.sleb128 35
 1048 00f3 08       		.uleb128 0x8
 1049 00f4 850A0000 		.4byte	.LASF26
 1050 00f8 24       		.sleb128 36
 1051 00f9 08       		.uleb128 0x8
 1052 00fa A10A0000 		.4byte	.LASF27
ARM GAS  C:\Users\mliha\AppData\Local\Temp\cc428Uxc.s 			page 43


 1053 00fe 25       		.sleb128 37
 1054 00ff 08       		.uleb128 0x8
 1055 0100 F4140000 		.4byte	.LASF28
 1056 0104 26       		.sleb128 38
 1057 0105 08       		.uleb128 0x8
 1058 0106 64000000 		.4byte	.LASF29
 1059 010a 27       		.sleb128 39
 1060 010b 08       		.uleb128 0x8
 1061 010c 8F190000 		.4byte	.LASF30
 1062 0110 28       		.sleb128 40
 1063 0111 08       		.uleb128 0x8
 1064 0112 EB110000 		.4byte	.LASF31
 1065 0116 29       		.sleb128 41
 1066 0117 08       		.uleb128 0x8
 1067 0118 EE0B0000 		.4byte	.LASF32
 1068 011c 2A       		.sleb128 42
 1069 011d 08       		.uleb128 0x8
 1070 011e 35100000 		.4byte	.LASF33
 1071 0122 2B       		.sleb128 43
 1072 0123 08       		.uleb128 0x8
 1073 0124 C3170000 		.4byte	.LASF34
 1074 0128 2C       		.sleb128 44
 1075 0129 08       		.uleb128 0x8
 1076 012a FD150000 		.4byte	.LASF35
 1077 012e C000     		.sleb128 64
 1078 0130 08       		.uleb128 0x8
 1079 0131 A4000000 		.4byte	.LASF36
 1080 0135 C100     		.sleb128 65
 1081 0137 08       		.uleb128 0x8
 1082 0138 2D190000 		.4byte	.LASF37
 1083 013c C200     		.sleb128 66
 1084 013e 08       		.uleb128 0x8
 1085 013f 08120000 		.4byte	.LASF38
 1086 0143 C300     		.sleb128 67
 1087 0145 08       		.uleb128 0x8
 1088 0146 B8060000 		.4byte	.LASF39
 1089 014a C400     		.sleb128 68
 1090 014c 08       		.uleb128 0x8
 1091 014d 57060000 		.4byte	.LASF40
 1092 0151 C500     		.sleb128 69
 1093 0153 08       		.uleb128 0x8
 1094 0154 94140000 		.4byte	.LASF41
 1095 0158 C600     		.sleb128 70
 1096 015a 08       		.uleb128 0x8
 1097 015b 76140000 		.4byte	.LASF42
 1098 015f C700     		.sleb128 71
 1099 0161 08       		.uleb128 0x8
 1100 0162 68070000 		.4byte	.LASF43
 1101 0166 C800     		.sleb128 72
 1102 0168 08       		.uleb128 0x8
 1103 0169 07110000 		.4byte	.LASF44
 1104 016d C900     		.sleb128 73
 1105 016f 08       		.uleb128 0x8
 1106 0170 65080000 		.4byte	.LASF45
 1107 0174 CA00     		.sleb128 74
 1108 0176 08       		.uleb128 0x8
 1109 0177 C4070000 		.4byte	.LASF46
ARM GAS  C:\Users\mliha\AppData\Local\Temp\cc428Uxc.s 			page 44


 1110 017b CB00     		.sleb128 75
 1111 017d 08       		.uleb128 0x8
 1112 017e 8E100000 		.4byte	.LASF47
 1113 0182 CC00     		.sleb128 76
 1114 0184 08       		.uleb128 0x8
 1115 0185 C1140000 		.4byte	.LASF48
 1116 0189 CD00     		.sleb128 77
 1117 018b 08       		.uleb128 0x8
 1118 018c 0B040000 		.4byte	.LASF49
 1119 0190 CE00     		.sleb128 78
 1120 0192 08       		.uleb128 0x8
 1121 0193 910E0000 		.4byte	.LASF50
 1122 0197 CF00     		.sleb128 79
 1123 0199 08       		.uleb128 0x8
 1124 019a 64160000 		.4byte	.LASF51
 1125 019e D000     		.sleb128 80
 1126 01a0 08       		.uleb128 0x8
 1127 01a1 9A080000 		.4byte	.LASF52
 1128 01a5 D100     		.sleb128 81
 1129 01a7 08       		.uleb128 0x8
 1130 01a8 D3020000 		.4byte	.LASF53
 1131 01ac D200     		.sleb128 82
 1132 01ae 08       		.uleb128 0x8
 1133 01af 52170000 		.4byte	.LASF54
 1134 01b3 D300     		.sleb128 83
 1135 01b5 08       		.uleb128 0x8
 1136 01b6 B1190000 		.4byte	.LASF55
 1137 01ba D400     		.sleb128 84
 1138 01bc 08       		.uleb128 0x8
 1139 01bd A8010000 		.4byte	.LASF56
 1140 01c1 D500     		.sleb128 85
 1141 01c3 08       		.uleb128 0x8
 1142 01c4 31180000 		.4byte	.LASF57
 1143 01c8 F000     		.sleb128 112
 1144 01ca 08       		.uleb128 0x8
 1145 01cb 380A0000 		.4byte	.LASF58
 1146 01cf F100     		.sleb128 113
 1147 01d1 08       		.uleb128 0x8
 1148 01d2 4A050000 		.4byte	.LASF59
 1149 01d6 F200     		.sleb128 114
 1150 01d8 08       		.uleb128 0x8
 1151 01d9 46160000 		.4byte	.LASF60
 1152 01dd F300     		.sleb128 115
 1153 01df 08       		.uleb128 0x8
 1154 01e0 5A110000 		.4byte	.LASF61
 1155 01e4 F400     		.sleb128 116
 1156 01e6 08       		.uleb128 0x8
 1157 01e7 650C0000 		.4byte	.LASF62
 1158 01eb F500     		.sleb128 117
 1159 01ed 08       		.uleb128 0x8
 1160 01ee 47070000 		.4byte	.LASF63
 1161 01f2 F600     		.sleb128 118
 1162 01f4 08       		.uleb128 0x8
 1163 01f5 63130000 		.4byte	.LASF64
 1164 01f9 F700     		.sleb128 119
 1165 01fb 08       		.uleb128 0x8
 1166 01fc CC010000 		.4byte	.LASF65
ARM GAS  C:\Users\mliha\AppData\Local\Temp\cc428Uxc.s 			page 45


 1167 0200 F800     		.sleb128 120
 1168 0202 08       		.uleb128 0x8
 1169 0203 F2060000 		.4byte	.LASF66
 1170 0207 F900     		.sleb128 121
 1171 0209 08       		.uleb128 0x8
 1172 020a 6B190000 		.4byte	.LASF67
 1173 020e FA00     		.sleb128 122
 1174 0210 08       		.uleb128 0x8
 1175 0211 7B0D0000 		.4byte	.LASF68
 1176 0215 FA01     		.sleb128 250
 1177 0217 08       		.uleb128 0x8
 1178 0218 27100000 		.4byte	.LASF69
 1179 021c FF01     		.sleb128 255
 1180 021e 00       		.byte	0
 1181 021f 09       		.uleb128 0x9
 1182 0220 01       		.byte	0x1
 1183 0221 03       		.byte	0x3
 1184 0222 1202     		.2byte	0x212
 1185 0224 5F020000 		.4byte	0x25f
 1186 0228 08       		.uleb128 0x8
 1187 0229 B0050000 		.4byte	.LASF70
 1188 022d 01       		.sleb128 1
 1189 022e 08       		.uleb128 0x8
 1190 022f A8100000 		.4byte	.LASF71
 1191 0233 02       		.sleb128 2
 1192 0234 08       		.uleb128 0x8
 1193 0235 B6110000 		.4byte	.LASF72
 1194 0239 03       		.sleb128 3
 1195 023a 08       		.uleb128 0x8
 1196 023b 5E030000 		.4byte	.LASF73
 1197 023f 04       		.sleb128 4
 1198 0240 08       		.uleb128 0x8
 1199 0241 94070000 		.4byte	.LASF74
 1200 0245 05       		.sleb128 5
 1201 0246 08       		.uleb128 0x8
 1202 0247 440B0000 		.4byte	.LASF75
 1203 024b 06       		.sleb128 6
 1204 024c 08       		.uleb128 0x8
 1205 024d 000B0000 		.4byte	.LASF76
 1206 0251 07       		.sleb128 7
 1207 0252 08       		.uleb128 0x8
 1208 0253 12170000 		.4byte	.LASF77
 1209 0257 08       		.sleb128 8
 1210 0258 08       		.uleb128 0x8
 1211 0259 C20D0000 		.4byte	.LASF78
 1212 025d 09       		.sleb128 9
 1213 025e 00       		.byte	0
 1214 025f 0A       		.uleb128 0xa
 1215 0260 AA0C0000 		.4byte	.LASF79
 1216 0264 03       		.byte	0x3
 1217 0265 1C02     		.2byte	0x21c
 1218 0267 1F020000 		.4byte	0x21f
 1219 026b 09       		.uleb128 0x9
 1220 026c 01       		.byte	0x1
 1221 026d 03       		.byte	0x3
 1222 026e 2002     		.2byte	0x220
 1223 0270 87020000 		.4byte	0x287
ARM GAS  C:\Users\mliha\AppData\Local\Temp\cc428Uxc.s 			page 46


 1224 0274 08       		.uleb128 0x8
 1225 0275 29170000 		.4byte	.LASF80
 1226 0279 00       		.sleb128 0
 1227 027a 08       		.uleb128 0x8
 1228 027b 0F0F0000 		.4byte	.LASF81
 1229 027f 01       		.sleb128 1
 1230 0280 08       		.uleb128 0x8
 1231 0281 1C180000 		.4byte	.LASF82
 1232 0285 02       		.sleb128 2
 1233 0286 00       		.byte	0
 1234 0287 0A       		.uleb128 0xa
 1235 0288 11060000 		.4byte	.LASF83
 1236 028c 03       		.byte	0x3
 1237 028d 2702     		.2byte	0x227
 1238 028f 6B020000 		.4byte	0x26b
 1239 0293 0B       		.uleb128 0xb
 1240 0294 02       		.byte	0x2
 1241 0295 03       		.byte	0x3
 1242 0296 2A02     		.2byte	0x22a
 1243 0298 B7020000 		.4byte	0x2b7
 1244 029c 0C       		.uleb128 0xc
 1245 029d DB000000 		.4byte	.LASF84
 1246 02a1 03       		.byte	0x3
 1247 02a2 2D02     		.2byte	0x22d
 1248 02a4 5F020000 		.4byte	0x25f
 1249 02a8 00       		.byte	0
 1250 02a9 0C       		.uleb128 0xc
 1251 02aa 40050000 		.4byte	.LASF85
 1252 02ae 03       		.byte	0x3
 1253 02af 2F02     		.2byte	0x22f
 1254 02b1 87020000 		.4byte	0x287
 1255 02b5 01       		.byte	0x1
 1256 02b6 00       		.byte	0
 1257 02b7 0A       		.uleb128 0xa
 1258 02b8 04180000 		.4byte	.LASF86
 1259 02bc 03       		.byte	0x3
 1260 02bd 3002     		.2byte	0x230
 1261 02bf 93020000 		.4byte	0x293
 1262 02c3 0B       		.uleb128 0xb
 1263 02c4 07       		.byte	0x7
 1264 02c5 03       		.byte	0x3
 1265 02c6 6202     		.2byte	0x262
 1266 02c8 E7020000 		.4byte	0x2e7
 1267 02cc 0C       		.uleb128 0xc
 1268 02cd C5160000 		.4byte	.LASF87
 1269 02d1 03       		.byte	0x3
 1270 02d2 6402     		.2byte	0x264
 1271 02d4 E7020000 		.4byte	0x2e7
 1272 02d8 00       		.byte	0
 1273 02d9 0C       		.uleb128 0xc
 1274 02da 1F020000 		.4byte	.LASF88
 1275 02de 03       		.byte	0x3
 1276 02df 6502     		.2byte	0x265
 1277 02e1 6B000000 		.4byte	0x6b
 1278 02e5 06       		.byte	0x6
 1279 02e6 00       		.byte	0
 1280 02e7 0D       		.uleb128 0xd
ARM GAS  C:\Users\mliha\AppData\Local\Temp\cc428Uxc.s 			page 47


 1281 02e8 6B000000 		.4byte	0x6b
 1282 02ec F7020000 		.4byte	0x2f7
 1283 02f0 0E       		.uleb128 0xe
 1284 02f1 A6000000 		.4byte	0xa6
 1285 02f5 05       		.byte	0x5
 1286 02f6 00       		.byte	0
 1287 02f7 0A       		.uleb128 0xa
 1288 02f8 C4130000 		.4byte	.LASF89
 1289 02fc 03       		.byte	0x3
 1290 02fd 6602     		.2byte	0x266
 1291 02ff C3020000 		.4byte	0x2c3
 1292 0303 07       		.uleb128 0x7
 1293 0304 01       		.byte	0x1
 1294 0305 04       		.byte	0x4
 1295 0306 44       		.byte	0x44
 1296 0307 24030000 		.4byte	0x324
 1297 030b 08       		.uleb128 0x8
 1298 030c F1130000 		.4byte	.LASF90
 1299 0310 01       		.sleb128 1
 1300 0311 08       		.uleb128 0x8
 1301 0312 B2130000 		.4byte	.LASF91
 1302 0316 02       		.sleb128 2
 1303 0317 08       		.uleb128 0x8
 1304 0318 59190000 		.4byte	.LASF92
 1305 031c 03       		.sleb128 3
 1306 031d 08       		.uleb128 0x8
 1307 031e 65140000 		.4byte	.LASF93
 1308 0322 04       		.sleb128 4
 1309 0323 00       		.byte	0
 1310 0324 04       		.uleb128 0x4
 1311 0325 24020000 		.4byte	.LASF94
 1312 0329 04       		.byte	0x4
 1313 032a 51       		.byte	0x51
 1314 032b 03030000 		.4byte	0x303
 1315 032f 07       		.uleb128 0x7
 1316 0330 01       		.byte	0x1
 1317 0331 05       		.byte	0x5
 1318 0332 B1       		.byte	0xb1
 1319 0333 50030000 		.4byte	0x350
 1320 0337 08       		.uleb128 0x8
 1321 0338 32040000 		.4byte	.LASF95
 1322 033c 00       		.sleb128 0
 1323 033d 08       		.uleb128 0x8
 1324 033e 48040000 		.4byte	.LASF96
 1325 0342 01       		.sleb128 1
 1326 0343 08       		.uleb128 0x8
 1327 0344 5E040000 		.4byte	.LASF97
 1328 0348 02       		.sleb128 2
 1329 0349 08       		.uleb128 0x8
 1330 034a 11090000 		.4byte	.LASF98
 1331 034e 0F       		.sleb128 15
 1332 034f 00       		.byte	0
 1333 0350 07       		.uleb128 0x7
 1334 0351 01       		.byte	0x1
 1335 0352 05       		.byte	0x5
 1336 0353 CB       		.byte	0xcb
 1337 0354 77030000 		.4byte	0x377
ARM GAS  C:\Users\mliha\AppData\Local\Temp\cc428Uxc.s 			page 48


 1338 0358 08       		.uleb128 0x8
 1339 0359 41030000 		.4byte	.LASF99
 1340 035d 00       		.sleb128 0
 1341 035e 08       		.uleb128 0x8
 1342 035f A5170000 		.4byte	.LASF100
 1343 0363 01       		.sleb128 1
 1344 0364 08       		.uleb128 0x8
 1345 0365 F9070000 		.4byte	.LASF101
 1346 0369 02       		.sleb128 2
 1347 036a 08       		.uleb128 0x8
 1348 036b 83000000 		.4byte	.LASF102
 1349 036f 03       		.sleb128 3
 1350 0370 08       		.uleb128 0x8
 1351 0371 17160000 		.4byte	.LASF103
 1352 0375 04       		.sleb128 4
 1353 0376 00       		.byte	0
 1354 0377 07       		.uleb128 0x7
 1355 0378 01       		.byte	0x1
 1356 0379 05       		.byte	0x5
 1357 037a E1       		.byte	0xe1
 1358 037b CE030000 		.4byte	0x3ce
 1359 037f 08       		.uleb128 0x8
 1360 0380 D1110000 		.4byte	.LASF104
 1361 0384 00       		.sleb128 0
 1362 0385 08       		.uleb128 0x8
 1363 0386 9A030000 		.4byte	.LASF105
 1364 038a 01       		.sleb128 1
 1365 038b 08       		.uleb128 0x8
 1366 038c 4D120000 		.4byte	.LASF106
 1367 0390 02       		.sleb128 2
 1368 0391 08       		.uleb128 0x8
 1369 0392 8A0B0000 		.4byte	.LASF107
 1370 0396 03       		.sleb128 3
 1371 0397 08       		.uleb128 0x8
 1372 0398 CD040000 		.4byte	.LASF108
 1373 039c 04       		.sleb128 4
 1374 039d 08       		.uleb128 0x8
 1375 039e 3A140000 		.4byte	.LASF109
 1376 03a2 05       		.sleb128 5
 1377 03a3 08       		.uleb128 0x8
 1378 03a4 DC0C0000 		.4byte	.LASF110
 1379 03a8 06       		.sleb128 6
 1380 03a9 08       		.uleb128 0x8
 1381 03aa 5F0B0000 		.4byte	.LASF111
 1382 03ae 07       		.sleb128 7
 1383 03af 08       		.uleb128 0x8
 1384 03b0 67020000 		.4byte	.LASF112
 1385 03b4 08       		.sleb128 8
 1386 03b5 08       		.uleb128 0x8
 1387 03b6 3E0C0000 		.4byte	.LASF113
 1388 03ba 09       		.sleb128 9
 1389 03bb 08       		.uleb128 0x8
 1390 03bc 1F070000 		.4byte	.LASF114
 1391 03c0 0A       		.sleb128 10
 1392 03c1 08       		.uleb128 0x8
 1393 03c2 3B020000 		.4byte	.LASF115
 1394 03c6 15       		.sleb128 21
ARM GAS  C:\Users\mliha\AppData\Local\Temp\cc428Uxc.s 			page 49


 1395 03c7 08       		.uleb128 0x8
 1396 03c8 5E0A0000 		.4byte	.LASF116
 1397 03cc 18       		.sleb128 24
 1398 03cd 00       		.byte	0
 1399 03ce 0A       		.uleb128 0xa
 1400 03cf 6F100000 		.4byte	.LASF117
 1401 03d3 05       		.byte	0x5
 1402 03d4 0D01     		.2byte	0x10d
 1403 03d6 77030000 		.4byte	0x377
 1404 03da 0B       		.uleb128 0xb
 1405 03db 04       		.byte	0x4
 1406 03dc 05       		.byte	0x5
 1407 03dd 2601     		.2byte	0x126
 1408 03df 18040000 		.4byte	0x418
 1409 03e3 0C       		.uleb128 0xc
 1410 03e4 31150000 		.4byte	.LASF118
 1411 03e8 05       		.byte	0x5
 1412 03e9 2F01     		.2byte	0x12f
 1413 03eb 6B000000 		.4byte	0x6b
 1414 03ef 00       		.byte	0
 1415 03f0 0C       		.uleb128 0xc
 1416 03f1 5E0E0000 		.4byte	.LASF119
 1417 03f5 05       		.byte	0x5
 1418 03f6 3501     		.2byte	0x135
 1419 03f8 6B000000 		.4byte	0x6b
 1420 03fc 01       		.byte	0x1
 1421 03fd 0C       		.uleb128 0xc
 1422 03fe 1E000000 		.4byte	.LASF120
 1423 0402 05       		.byte	0x5
 1424 0403 3B01     		.2byte	0x13b
 1425 0405 6B000000 		.4byte	0x6b
 1426 0409 02       		.byte	0x2
 1427 040a 0C       		.uleb128 0xc
 1428 040b 84150000 		.4byte	.LASF121
 1429 040f 05       		.byte	0x5
 1430 0410 3F01     		.2byte	0x13f
 1431 0412 CE030000 		.4byte	0x3ce
 1432 0416 03       		.byte	0x3
 1433 0417 00       		.byte	0
 1434 0418 0A       		.uleb128 0xa
 1435 0419 E3070000 		.4byte	.LASF122
 1436 041d 05       		.byte	0x5
 1437 041e 4101     		.2byte	0x141
 1438 0420 DA030000 		.4byte	0x3da
 1439 0424 0F       		.uleb128 0xf
 1440 0425 04       		.byte	0x4
 1441 0426 6B000000 		.4byte	0x6b
 1442 042a 0B       		.uleb128 0xb
 1443 042b 08       		.byte	0x8
 1444 042c 05       		.byte	0x5
 1445 042d AD02     		.2byte	0x2ad
 1446 042f 68040000 		.4byte	0x468
 1447 0433 0C       		.uleb128 0xc
 1448 0434 3D0B0000 		.4byte	.LASF123
 1449 0438 05       		.byte	0x5
 1450 0439 B102     		.2byte	0x2b1
 1451 043b 6B000000 		.4byte	0x6b
ARM GAS  C:\Users\mliha\AppData\Local\Temp\cc428Uxc.s 			page 50


 1452 043f 00       		.byte	0
 1453 0440 0C       		.uleb128 0xc
 1454 0441 92180000 		.4byte	.LASF124
 1455 0445 05       		.byte	0x5
 1456 0446 B702     		.2byte	0x2b7
 1457 0448 76000000 		.4byte	0x76
 1458 044c 02       		.byte	0x2
 1459 044d 0C       		.uleb128 0xc
 1460 044e 99170000 		.4byte	.LASF125
 1461 0452 05       		.byte	0x5
 1462 0453 BC02     		.2byte	0x2bc
 1463 0455 76000000 		.4byte	0x76
 1464 0459 04       		.byte	0x4
 1465 045a 0C       		.uleb128 0xc
 1466 045b 4B190000 		.4byte	.LASF126
 1467 045f 05       		.byte	0x5
 1468 0460 C202     		.2byte	0x2c2
 1469 0462 76000000 		.4byte	0x76
 1470 0466 06       		.byte	0x6
 1471 0467 00       		.byte	0
 1472 0468 0A       		.uleb128 0xa
 1473 0469 95120000 		.4byte	.LASF127
 1474 046d 05       		.byte	0x5
 1475 046e C402     		.2byte	0x2c4
 1476 0470 2A040000 		.4byte	0x42a
 1477 0474 07       		.uleb128 0x7
 1478 0475 01       		.byte	0x1
 1479 0476 06       		.byte	0x6
 1480 0477 48       		.byte	0x48
 1481 0478 2E050000 		.4byte	0x52e
 1482 047c 08       		.uleb128 0x8
 1483 047d 7D090000 		.4byte	.LASF128
 1484 0481 01       		.sleb128 1
 1485 0482 08       		.uleb128 0x8
 1486 0483 4C080000 		.4byte	.LASF129
 1487 0487 02       		.sleb128 2
 1488 0488 08       		.uleb128 0x8
 1489 0489 F2030000 		.4byte	.LASF130
 1490 048d 03       		.sleb128 3
 1491 048e 08       		.uleb128 0x8
 1492 048f CC050000 		.4byte	.LASF131
 1493 0493 04       		.sleb128 4
 1494 0494 08       		.uleb128 0x8
 1495 0495 34120000 		.4byte	.LASF132
 1496 0499 05       		.sleb128 5
 1497 049a 08       		.uleb128 0x8
 1498 049b 94110000 		.4byte	.LASF133
 1499 049f 06       		.sleb128 6
 1500 04a0 08       		.uleb128 0x8
 1501 04a1 1F030000 		.4byte	.LASF134
 1502 04a5 07       		.sleb128 7
 1503 04a6 08       		.uleb128 0x8
 1504 04a7 3E110000 		.4byte	.LASF135
 1505 04ab 08       		.sleb128 8
 1506 04ac 08       		.uleb128 0x8
 1507 04ad 8F020000 		.4byte	.LASF136
 1508 04b1 09       		.sleb128 9
ARM GAS  C:\Users\mliha\AppData\Local\Temp\cc428Uxc.s 			page 51


 1509 04b2 08       		.uleb128 0x8
 1510 04b3 290B0000 		.4byte	.LASF137
 1511 04b7 0A       		.sleb128 10
 1512 04b8 08       		.uleb128 0x8
 1513 04b9 FE160000 		.4byte	.LASF138
 1514 04bd 0B       		.sleb128 11
 1515 04be 08       		.uleb128 0x8
 1516 04bf D8130000 		.4byte	.LASF139
 1517 04c3 0C       		.sleb128 12
 1518 04c4 08       		.uleb128 0x8
 1519 04c5 66050000 		.4byte	.LASF140
 1520 04c9 0D       		.sleb128 13
 1521 04ca 08       		.uleb128 0x8
 1522 04cb EA100000 		.4byte	.LASF141
 1523 04cf 0E       		.sleb128 14
 1524 04d0 08       		.uleb128 0x8
 1525 04d1 02020000 		.4byte	.LASF142
 1526 04d5 0F       		.sleb128 15
 1527 04d6 08       		.uleb128 0x8
 1528 04d7 F5180000 		.4byte	.LASF143
 1529 04db 10       		.sleb128 16
 1530 04dc 08       		.uleb128 0x8
 1531 04dd BB0A0000 		.4byte	.LASF144
 1532 04e1 11       		.sleb128 17
 1533 04e2 08       		.uleb128 0x8
 1534 04e3 65150000 		.4byte	.LASF145
 1535 04e7 12       		.sleb128 18
 1536 04e8 08       		.uleb128 0x8
 1537 04e9 AF070000 		.4byte	.LASF146
 1538 04ed 13       		.sleb128 19
 1539 04ee 08       		.uleb128 0x8
 1540 04ef BF000000 		.4byte	.LASF147
 1541 04f3 D200     		.sleb128 82
 1542 04f5 08       		.uleb128 0x8
 1543 04f6 52010000 		.4byte	.LASF148
 1544 04fa 16       		.sleb128 22
 1545 04fb 08       		.uleb128 0x8
 1546 04fc D90F0000 		.4byte	.LASF149
 1547 0500 17       		.sleb128 23
 1548 0501 08       		.uleb128 0x8
 1549 0502 E7170000 		.4byte	.LASF150
 1550 0506 18       		.sleb128 24
 1551 0507 08       		.uleb128 0x8
 1552 0508 1B0A0000 		.4byte	.LASF151
 1553 050c 19       		.sleb128 25
 1554 050d 08       		.uleb128 0x8
 1555 050e BA0B0000 		.4byte	.LASF152
 1556 0512 1B       		.sleb128 27
 1557 0513 08       		.uleb128 0x8
 1558 0514 D6060000 		.4byte	.LASF153
 1559 0518 1D       		.sleb128 29
 1560 0519 08       		.uleb128 0x8
 1561 051a 27000000 		.4byte	.LASF154
 1562 051e 1E       		.sleb128 30
 1563 051f 08       		.uleb128 0x8
 1564 0520 D4090000 		.4byte	.LASF155
 1565 0524 D201     		.sleb128 210
ARM GAS  C:\Users\mliha\AppData\Local\Temp\cc428Uxc.s 			page 52


 1566 0526 08       		.uleb128 0x8
 1567 0527 1C130000 		.4byte	.LASF156
 1568 052b FF01     		.sleb128 255
 1569 052d 00       		.byte	0
 1570 052e 07       		.uleb128 0x7
 1571 052f 01       		.byte	0x1
 1572 0530 06       		.byte	0x6
 1573 0531 A4       		.byte	0xa4
 1574 0532 DB050000 		.4byte	0x5db
 1575 0536 08       		.uleb128 0x8
 1576 0537 82130000 		.4byte	.LASF157
 1577 053b 00       		.sleb128 0
 1578 053c 08       		.uleb128 0x8
 1579 053d D9120000 		.4byte	.LASF158
 1580 0541 01       		.sleb128 1
 1581 0542 08       		.uleb128 0x8
 1582 0543 0B010000 		.4byte	.LASF159
 1583 0547 02       		.sleb128 2
 1584 0548 08       		.uleb128 0x8
 1585 0549 5F180000 		.4byte	.LASF160
 1586 054d 03       		.sleb128 3
 1587 054e 08       		.uleb128 0x8
 1588 054f B2040000 		.4byte	.LASF161
 1589 0553 04       		.sleb128 4
 1590 0554 08       		.uleb128 0x8
 1591 0555 B00E0000 		.4byte	.LASF162
 1592 0559 05       		.sleb128 5
 1593 055a 08       		.uleb128 0x8
 1594 055b D8150000 		.4byte	.LASF163
 1595 055f 06       		.sleb128 6
 1596 0560 08       		.uleb128 0x8
 1597 0561 20110000 		.4byte	.LASF164
 1598 0565 07       		.sleb128 7
 1599 0566 08       		.uleb128 0x8
 1600 0567 290E0000 		.4byte	.LASF165
 1601 056b 08       		.sleb128 8
 1602 056c 08       		.uleb128 0x8
 1603 056d D80A0000 		.4byte	.LASF166
 1604 0571 09       		.sleb128 9
 1605 0572 08       		.uleb128 0x8
 1606 0573 04100000 		.4byte	.LASF167
 1607 0577 0A       		.sleb128 10
 1608 0578 08       		.uleb128 0x8
 1609 0579 EF080000 		.4byte	.LASF168
 1610 057d 0B       		.sleb128 11
 1611 057e 08       		.uleb128 0x8
 1612 057f 990D0000 		.4byte	.LASF169
 1613 0583 0C       		.sleb128 12
 1614 0584 08       		.uleb128 0x8
 1615 0585 7F050000 		.4byte	.LASF170
 1616 0589 0D       		.sleb128 13
 1617 058a 08       		.uleb128 0x8
 1618 058b 2E080000 		.4byte	.LASF171
 1619 058f 0E       		.sleb128 14
 1620 0590 08       		.uleb128 0x8
 1621 0591 AE180000 		.4byte	.LASF172
 1622 0595 0F       		.sleb128 15
ARM GAS  C:\Users\mliha\AppData\Local\Temp\cc428Uxc.s 			page 53


 1623 0596 08       		.uleb128 0x8
 1624 0597 6F010000 		.4byte	.LASF173
 1625 059b 10       		.sleb128 16
 1626 059c 08       		.uleb128 0x8
 1627 059d 2D010000 		.4byte	.LASF174
 1628 05a1 11       		.sleb128 17
 1629 05a2 08       		.uleb128 0x8
 1630 05a3 B9080000 		.4byte	.LASF175
 1631 05a7 8001     		.sleb128 128
 1632 05a9 08       		.uleb128 0x8
 1633 05aa 8C150000 		.4byte	.LASF176
 1634 05ae 8001     		.sleb128 128
 1635 05b0 08       		.uleb128 0x8
 1636 05b1 A10F0000 		.4byte	.LASF177
 1637 05b5 8001     		.sleb128 128
 1638 05b7 08       		.uleb128 0x8
 1639 05b8 F0090000 		.4byte	.LASF178
 1640 05bc 8101     		.sleb128 129
 1641 05be 08       		.uleb128 0x8
 1642 05bf CC160000 		.4byte	.LASF179
 1643 05c3 A001     		.sleb128 160
 1644 05c5 08       		.uleb128 0x8
 1645 05c6 2D060000 		.4byte	.LASF180
 1646 05ca FD01     		.sleb128 253
 1647 05cc 08       		.uleb128 0x8
 1648 05cd D70D0000 		.4byte	.LASF181
 1649 05d1 FE01     		.sleb128 254
 1650 05d3 08       		.uleb128 0x8
 1651 05d4 78110000 		.4byte	.LASF182
 1652 05d8 FF01     		.sleb128 255
 1653 05da 00       		.byte	0
 1654 05db 0A       		.uleb128 0xa
 1655 05dc 9C130000 		.4byte	.LASF183
 1656 05e0 06       		.byte	0x6
 1657 05e1 2801     		.2byte	0x128
 1658 05e3 2E050000 		.4byte	0x52e
 1659 05e7 0A       		.uleb128 0xa
 1660 05e8 37130000 		.4byte	.LASF184
 1661 05ec 06       		.byte	0x6
 1662 05ed 4A01     		.2byte	0x14a
 1663 05ef 76000000 		.4byte	0x76
 1664 05f3 0B       		.uleb128 0xb
 1665 05f4 02       		.byte	0x2
 1666 05f5 06       		.byte	0x6
 1667 05f6 4D01     		.2byte	0x14d
 1668 05f8 17060000 		.4byte	0x617
 1669 05fc 0C       		.uleb128 0xc
 1670 05fd 91030000 		.4byte	.LASF185
 1671 0601 06       		.byte	0x6
 1672 0602 5001     		.2byte	0x150
 1673 0604 6B000000 		.4byte	0x6b
 1674 0608 00       		.byte	0
 1675 0609 0C       		.uleb128 0xc
 1676 060a 12190000 		.4byte	.LASF186
 1677 060e 06       		.byte	0x6
 1678 060f 5301     		.2byte	0x153
 1679 0611 6B000000 		.4byte	0x6b
ARM GAS  C:\Users\mliha\AppData\Local\Temp\cc428Uxc.s 			page 54


 1680 0615 01       		.byte	0x1
 1681 0616 00       		.byte	0
 1682 0617 0A       		.uleb128 0xa
 1683 0618 0B030000 		.4byte	.LASF187
 1684 061c 06       		.byte	0x6
 1685 061d 5501     		.2byte	0x155
 1686 061f F3050000 		.4byte	0x5f3
 1687 0623 0B       		.uleb128 0xb
 1688 0624 08       		.byte	0x8
 1689 0625 06       		.byte	0x6
 1690 0626 6A01     		.2byte	0x16a
 1691 0628 54060000 		.4byte	0x654
 1692 062c 10       		.uleb128 0x10
 1693 062d 76616C00 		.ascii	"val\000"
 1694 0631 06       		.byte	0x6
 1695 0632 6D01     		.2byte	0x16d
 1696 0634 24040000 		.4byte	0x424
 1697 0638 00       		.byte	0
 1698 0639 10       		.uleb128 0x10
 1699 063a 6C656E00 		.ascii	"len\000"
 1700 063e 06       		.byte	0x6
 1701 063f 7001     		.2byte	0x170
 1702 0641 76000000 		.4byte	0x76
 1703 0645 04       		.byte	0x4
 1704 0646 0C       		.uleb128 0xc
 1705 0647 EB180000 		.4byte	.LASF188
 1706 064b 06       		.byte	0x6
 1707 064c 7401     		.2byte	0x174
 1708 064e 76000000 		.4byte	0x76
 1709 0652 06       		.byte	0x6
 1710 0653 00       		.byte	0
 1711 0654 0A       		.uleb128 0xa
 1712 0655 EF010000 		.4byte	.LASF189
 1713 0659 06       		.byte	0x6
 1714 065a 7601     		.2byte	0x176
 1715 065c 23060000 		.4byte	0x623
 1716 0660 0B       		.uleb128 0xb
 1717 0661 0C       		.byte	0xc
 1718 0662 06       		.byte	0x6
 1719 0663 7901     		.2byte	0x179
 1720 0665 84060000 		.4byte	0x684
 1721 0669 0C       		.uleb128 0xc
 1722 066a 96130000 		.4byte	.LASF190
 1723 066e 06       		.byte	0x6
 1724 066f 7C01     		.2byte	0x17c
 1725 0671 54060000 		.4byte	0x654
 1726 0675 00       		.byte	0
 1727 0676 0C       		.uleb128 0xc
 1728 0677 530E0000 		.4byte	.LASF191
 1729 067b 06       		.byte	0x6
 1730 067c 7F01     		.2byte	0x17f
 1731 067e E7050000 		.4byte	0x5e7
 1732 0682 08       		.byte	0x8
 1733 0683 00       		.byte	0
 1734 0684 0A       		.uleb128 0xa
 1735 0685 21050000 		.4byte	.LASF192
 1736 0689 06       		.byte	0x6
ARM GAS  C:\Users\mliha\AppData\Local\Temp\cc428Uxc.s 			page 55


 1737 068a 8101     		.2byte	0x181
 1738 068c 60060000 		.4byte	0x660
 1739 0690 0B       		.uleb128 0xb
 1740 0691 04       		.byte	0x4
 1741 0692 06       		.byte	0x6
 1742 0693 8F01     		.2byte	0x18f
 1743 0695 B4060000 		.4byte	0x6b4
 1744 0699 0C       		.uleb128 0xc
 1745 069a 15140000 		.4byte	.LASF193
 1746 069e 06       		.byte	0x6
 1747 069f 9201     		.2byte	0x192
 1748 06a1 17060000 		.4byte	0x617
 1749 06a5 00       		.byte	0
 1750 06a6 10       		.uleb128 0x10
 1751 06a7 6D747500 		.ascii	"mtu\000"
 1752 06ab 06       		.byte	0x6
 1753 06ac 9501     		.2byte	0x195
 1754 06ae 76000000 		.4byte	0x76
 1755 06b2 02       		.byte	0x2
 1756 06b3 00       		.byte	0
 1757 06b4 0A       		.uleb128 0xa
 1758 06b5 DB0E0000 		.4byte	.LASF194
 1759 06b9 06       		.byte	0x6
 1760 06ba 9701     		.2byte	0x197
 1761 06bc 90060000 		.4byte	0x690
 1762 06c0 11       		.uleb128 0x11
 1763 06c1 04       		.byte	0x4
 1764 06c2 07       		.byte	0x7
 1765 06c3 33       		.byte	0x33
 1766 06c4 ED060000 		.4byte	0x6ed
 1767 06c8 12       		.uleb128 0x12
 1768 06c9 530E0000 		.4byte	.LASF191
 1769 06cd 07       		.byte	0x7
 1770 06ce 36       		.byte	0x36
 1771 06cf E7050000 		.4byte	0x5e7
 1772 06d3 00       		.byte	0
 1773 06d4 12       		.uleb128 0x12
 1774 06d5 220E0000 		.4byte	.LASF195
 1775 06d9 07       		.byte	0x7
 1776 06da 3C       		.byte	0x3c
 1777 06db 6B000000 		.4byte	0x6b
 1778 06df 02       		.byte	0x2
 1779 06e0 12       		.uleb128 0x12
 1780 06e1 15070000 		.4byte	.LASF196
 1781 06e5 07       		.byte	0x7
 1782 06e6 3F       		.byte	0x3f
 1783 06e7 DB050000 		.4byte	0x5db
 1784 06eb 03       		.byte	0x3
 1785 06ec 00       		.byte	0
 1786 06ed 04       		.uleb128 0x4
 1787 06ee 92060000 		.4byte	.LASF197
 1788 06f2 07       		.byte	0x7
 1789 06f3 41       		.byte	0x41
 1790 06f4 C0060000 		.4byte	0x6c0
 1791 06f8 11       		.uleb128 0x11
 1792 06f9 10       		.byte	0x10
 1793 06fa 07       		.byte	0x7
ARM GAS  C:\Users\mliha\AppData\Local\Temp\cc428Uxc.s 			page 56


 1794 06fb 52       		.byte	0x52
 1795 06fc 19070000 		.4byte	0x719
 1796 0700 12       		.uleb128 0x12
 1797 0701 15140000 		.4byte	.LASF193
 1798 0705 07       		.byte	0x7
 1799 0706 55       		.byte	0x55
 1800 0707 17060000 		.4byte	0x617
 1801 070b 00       		.byte	0
 1802 070c 12       		.uleb128 0x12
 1803 070d 07140000 		.4byte	.LASF198
 1804 0711 07       		.byte	0x7
 1805 0712 58       		.byte	0x58
 1806 0713 84060000 		.4byte	0x684
 1807 0717 04       		.byte	0x4
 1808 0718 00       		.byte	0
 1809 0719 04       		.uleb128 0x4
 1810 071a 660E0000 		.4byte	.LASF199
 1811 071e 07       		.byte	0x7
 1812 071f 5A       		.byte	0x5a
 1813 0720 F8060000 		.4byte	0x6f8
 1814 0724 04       		.uleb128 0x4
 1815 0725 AB020000 		.4byte	.LASF200
 1816 0729 08       		.byte	0x8
 1817 072a F9       		.byte	0xf9
 1818 072b 2F070000 		.4byte	0x72f
 1819 072f 0F       		.uleb128 0xf
 1820 0730 04       		.byte	0x4
 1821 0731 35070000 		.4byte	0x735
 1822 0735 13       		.uleb128 0x13
 1823 0736 45070000 		.4byte	0x745
 1824 073a 14       		.uleb128 0x14
 1825 073b 81000000 		.4byte	0x81
 1826 073f 14       		.uleb128 0x14
 1827 0740 AD000000 		.4byte	0xad
 1828 0744 00       		.byte	0
 1829 0745 07       		.uleb128 0x7
 1830 0746 01       		.byte	0x1
 1831 0747 09       		.byte	0x9
 1832 0748 1D       		.byte	0x1d
 1833 0749 8A070000 		.4byte	0x78a
 1834 074d 08       		.uleb128 0x8
 1835 074e 79120000 		.4byte	.LASF201
 1836 0752 00       		.sleb128 0
 1837 0753 08       		.uleb128 0x8
 1838 0754 41090000 		.4byte	.LASF202
 1839 0758 01       		.sleb128 1
 1840 0759 08       		.uleb128 0x8
 1841 075a D60B0000 		.4byte	.LASF203
 1842 075e 02       		.sleb128 2
 1843 075f 08       		.uleb128 0x8
 1844 0760 87040000 		.4byte	.LASF204
 1845 0764 03       		.sleb128 3
 1846 0765 08       		.uleb128 0x8
 1847 0766 BC020000 		.4byte	.LASF205
 1848 076a 04       		.sleb128 4
 1849 076b 08       		.uleb128 0x8
 1850 076c 2A090000 		.4byte	.LASF206
ARM GAS  C:\Users\mliha\AppData\Local\Temp\cc428Uxc.s 			page 57


 1851 0770 05       		.sleb128 5
 1852 0771 08       		.uleb128 0x8
 1853 0772 69090000 		.4byte	.LASF207
 1854 0776 06       		.sleb128 6
 1855 0777 08       		.uleb128 0x8
 1856 0778 F70E0000 		.4byte	.LASF208
 1857 077c 07       		.sleb128 7
 1858 077d 08       		.uleb128 0x8
 1859 077e 4F0D0000 		.4byte	.LASF209
 1860 0782 08       		.sleb128 8
 1861 0783 08       		.uleb128 0x8
 1862 0784 00000000 		.4byte	.LASF210
 1863 0788 09       		.sleb128 9
 1864 0789 00       		.byte	0
 1865 078a 07       		.uleb128 0x7
 1866 078b 01       		.byte	0x1
 1867 078c 0A       		.byte	0xa
 1868 078d 22       		.byte	0x22
 1869 078e AB070000 		.4byte	0x7ab
 1870 0792 08       		.uleb128 0x8
 1871 0793 26120000 		.4byte	.LASF211
 1872 0797 00       		.sleb128 0
 1873 0798 08       		.uleb128 0x8
 1874 0799 120D0000 		.4byte	.LASF212
 1875 079d 01       		.sleb128 1
 1876 079e 08       		.uleb128 0x8
 1877 079f F60F0000 		.4byte	.LASF213
 1878 07a3 02       		.sleb128 2
 1879 07a4 08       		.uleb128 0x8
 1880 07a5 C3150000 		.4byte	.LASF214
 1881 07a9 03       		.sleb128 3
 1882 07aa 00       		.byte	0
 1883 07ab 09       		.uleb128 0x9
 1884 07ac 01       		.byte	0x1
 1885 07ad 0B       		.byte	0xb
 1886 07ae F004     		.2byte	0x4f0
 1887 07b0 D3070000 		.4byte	0x7d3
 1888 07b4 08       		.uleb128 0x8
 1889 07b5 7E060000 		.4byte	.LASF215
 1890 07b9 00       		.sleb128 0
 1891 07ba 08       		.uleb128 0x8
 1892 07bb 170C0000 		.4byte	.LASF216
 1893 07bf 01       		.sleb128 1
 1894 07c0 08       		.uleb128 0x8
 1895 07c1 D5180000 		.4byte	.LASF217
 1896 07c5 02       		.sleb128 2
 1897 07c6 08       		.uleb128 0x8
 1898 07c7 79030000 		.4byte	.LASF218
 1899 07cb 03       		.sleb128 3
 1900 07cc 08       		.uleb128 0x8
 1901 07cd DB140000 		.4byte	.LASF219
 1902 07d1 04       		.sleb128 4
 1903 07d2 00       		.byte	0
 1904 07d3 0A       		.uleb128 0xa
 1905 07d4 38160000 		.4byte	.LASF220
 1906 07d8 0B       		.byte	0xb
 1907 07d9 FE04     		.2byte	0x4fe
ARM GAS  C:\Users\mliha\AppData\Local\Temp\cc428Uxc.s 			page 58


 1908 07db AB070000 		.4byte	0x7ab
 1909 07df 15       		.uleb128 0x15
 1910 07e0 43000000 		.4byte	.LASF223
 1911 07e4 01       		.byte	0x1
 1912 07e5 B2       		.byte	0xb2
 1913 07e6 00000000 		.4byte	.LFB2
 1914 07ea 98000000 		.4byte	.LFE2-.LFB2
 1915 07ee 01       		.uleb128 0x1
 1916 07ef 9C       		.byte	0x9c
 1917 07f0 2A080000 		.4byte	0x82a
 1918 07f4 16       		.uleb128 0x16
 1919 07f5 59000000 		.4byte	.LASF225
 1920 07f9 01       		.byte	0x1
 1921 07fa B2       		.byte	0xb2
 1922 07fb 2A080000 		.4byte	0x82a
 1923 07ff 02       		.uleb128 0x2
 1924 0800 91       		.byte	0x91
 1925 0801 64       		.sleb128 -28
 1926 0802 17       		.uleb128 0x17
 1927 0803 57180000 		.4byte	.LASF221
 1928 0807 01       		.byte	0x1
 1929 0808 B4       		.byte	0xb4
 1930 0809 DB050000 		.4byte	0x5db
 1931 080d 02       		.uleb128 0x2
 1932 080e 91       		.byte	0x91
 1933 080f 6F       		.sleb128 -17
 1934 0810 18       		.uleb128 0x18
 1935 0811 58000000 		.4byte	.LBB2
 1936 0815 2C000000 		.4byte	.LBE2-.LBB2
 1937 0819 19       		.uleb128 0x19
 1938 081a CF0F0000 		.4byte	.LASF222
 1939 081e 01       		.byte	0x1
 1940 081f 1D01     		.2byte	0x11d
 1941 0821 ED060000 		.4byte	0x6ed
 1942 0825 02       		.uleb128 0x2
 1943 0826 91       		.byte	0x91
 1944 0827 68       		.sleb128 -24
 1945 0828 00       		.byte	0
 1946 0829 00       		.byte	0
 1947 082a 0F       		.uleb128 0xf
 1948 082b 04       		.byte	0x4
 1949 082c 19070000 		.4byte	0x719
 1950 0830 1A       		.uleb128 0x1a
 1951 0831 040E0000 		.4byte	.LASF224
 1952 0835 01       		.byte	0x1
 1953 0836 3D01     		.2byte	0x13d
 1954 0838 00000000 		.4byte	.LFB3
 1955 083c 0E000000 		.4byte	.LFE3-.LFB3
 1956 0840 01       		.uleb128 0x1
 1957 0841 9C       		.byte	0x9c
 1958 0842 56080000 		.4byte	0x856
 1959 0846 1B       		.uleb128 0x1b
 1960 0847 59000000 		.4byte	.LASF225
 1961 084b 01       		.byte	0x1
 1962 084c 3D01     		.2byte	0x13d
 1963 084e 56080000 		.4byte	0x856
 1964 0852 02       		.uleb128 0x2
ARM GAS  C:\Users\mliha\AppData\Local\Temp\cc428Uxc.s 			page 59


 1965 0853 91       		.byte	0x91
 1966 0854 74       		.sleb128 -12
 1967 0855 00       		.byte	0
 1968 0856 0F       		.uleb128 0xf
 1969 0857 04       		.byte	0x4
 1970 0858 5C080000 		.4byte	0x85c
 1971 085c 1C       		.uleb128 0x1c
 1972 085d 17060000 		.4byte	0x617
 1973 0861 1D       		.uleb128 0x1d
 1974 0862 2E0D0000 		.4byte	.LASF227
 1975 0866 01       		.byte	0x1
 1976 0867 0502     		.2byte	0x205
 1977 0869 00000000 		.4byte	.LFB4
 1978 086d 18000000 		.4byte	.LFE4-.LFB4
 1979 0871 01       		.uleb128 0x1
 1980 0872 9C       		.byte	0x9c
 1981 0873 1A       		.uleb128 0x1a
 1982 0874 20140000 		.4byte	.LASF226
 1983 0878 01       		.byte	0x1
 1984 0879 3B02     		.2byte	0x23b
 1985 087b 00000000 		.4byte	.LFB5
 1986 087f 0E000000 		.4byte	.LFE5-.LFB5
 1987 0883 01       		.uleb128 0x1
 1988 0884 9C       		.byte	0x9c
 1989 0885 99080000 		.4byte	0x899
 1990 0889 1B       		.uleb128 0x1b
 1991 088a 59000000 		.4byte	.LASF225
 1992 088e 01       		.byte	0x1
 1993 088f 3B02     		.2byte	0x23b
 1994 0891 99080000 		.4byte	0x899
 1995 0895 02       		.uleb128 0x2
 1996 0896 91       		.byte	0x91
 1997 0897 74       		.sleb128 -12
 1998 0898 00       		.byte	0
 1999 0899 0F       		.uleb128 0xf
 2000 089a 04       		.byte	0x4
 2001 089b 9F080000 		.4byte	0x89f
 2002 089f 1C       		.uleb128 0x1c
 2003 08a0 24030000 		.4byte	0x324
 2004 08a4 1D       		.uleb128 0x1d
 2005 08a5 C00C0000 		.4byte	.LASF228
 2006 08a9 01       		.byte	0x1
 2007 08aa 7702     		.2byte	0x277
 2008 08ac 00000000 		.4byte	.LFB6
 2009 08b0 08000000 		.4byte	.LFE6-.LFB6
 2010 08b4 01       		.uleb128 0x1
 2011 08b5 9C       		.byte	0x9c
 2012 08b6 1E       		.uleb128 0x1e
 2013 08b7 54100000 		.4byte	.LASF251
 2014 08bb 01       		.byte	0x1
 2015 08bc A102     		.2byte	0x2a1
 2016 08be 6B000000 		.4byte	0x6b
 2017 08c2 00000000 		.4byte	.LFB7
 2018 08c6 60000000 		.4byte	.LFE7-.LFB7
 2019 08ca 01       		.uleb128 0x1
 2020 08cb 9C       		.byte	0x9c
 2021 08cc FC080000 		.4byte	0x8fc
ARM GAS  C:\Users\mliha\AppData\Local\Temp\cc428Uxc.s 			page 60


 2022 08d0 1B       		.uleb128 0x1b
 2023 08d1 600D0000 		.4byte	.LASF229
 2024 08d5 01       		.byte	0x1
 2025 08d6 A102     		.2byte	0x2a1
 2026 08d8 FC080000 		.4byte	0x8fc
 2027 08dc 02       		.uleb128 0x2
 2028 08dd 91       		.byte	0x91
 2029 08de 6C       		.sleb128 -20
 2030 08df 1F       		.uleb128 0x1f
 2031 08e0 6900     		.ascii	"i\000"
 2032 08e2 01       		.byte	0x1
 2033 08e3 A302     		.2byte	0x2a3
 2034 08e5 6B000000 		.4byte	0x6b
 2035 08e9 02       		.uleb128 0x2
 2036 08ea 91       		.byte	0x91
 2037 08eb 77       		.sleb128 -9
 2038 08ec 19       		.uleb128 0x19
 2039 08ed 09130000 		.4byte	.LASF230
 2040 08f1 01       		.byte	0x1
 2041 08f2 A402     		.2byte	0x2a4
 2042 08f4 6B000000 		.4byte	0x6b
 2043 08f8 02       		.uleb128 0x2
 2044 08f9 91       		.byte	0x91
 2045 08fa 76       		.sleb128 -10
 2046 08fb 00       		.byte	0
 2047 08fc 0F       		.uleb128 0xf
 2048 08fd 04       		.byte	0x4
 2049 08fe 02090000 		.4byte	0x902
 2050 0902 1C       		.uleb128 0x1c
 2051 0903 F7020000 		.4byte	0x2f7
 2052 0907 1A       		.uleb128 0x1a
 2053 0908 3A150000 		.4byte	.LASF231
 2054 090c 01       		.byte	0x1
 2055 090d C702     		.2byte	0x2c7
 2056 090f 00000000 		.4byte	.LFB8
 2057 0913 12000000 		.4byte	.LFE8-.LFB8
 2058 0917 01       		.uleb128 0x1
 2059 0918 9C       		.byte	0x9c
 2060 0919 2D090000 		.4byte	0x92d
 2061 091d 1B       		.uleb128 0x1b
 2062 091e F5160000 		.4byte	.LASF232
 2063 0922 01       		.byte	0x1
 2064 0923 C702     		.2byte	0x2c7
 2065 0925 76000000 		.4byte	0x76
 2066 0929 02       		.uleb128 0x2
 2067 092a 91       		.byte	0x91
 2068 092b 76       		.sleb128 -10
 2069 092c 00       		.byte	0
 2070 092d 1A       		.uleb128 0x1a
 2071 092e 92090000 		.4byte	.LASF233
 2072 0932 01       		.byte	0x1
 2073 0933 E302     		.2byte	0x2e3
 2074 0935 00000000 		.4byte	.LFB9
 2075 0939 0E000000 		.4byte	.LFE9-.LFB9
 2076 093d 01       		.uleb128 0x1
 2077 093e 9C       		.byte	0x9c
 2078 093f 53090000 		.4byte	0x953
ARM GAS  C:\Users\mliha\AppData\Local\Temp\cc428Uxc.s 			page 61


 2079 0943 1B       		.uleb128 0x1b
 2080 0944 59000000 		.4byte	.LASF225
 2081 0948 01       		.byte	0x1
 2082 0949 E302     		.2byte	0x2e3
 2083 094b 53090000 		.4byte	0x953
 2084 094f 02       		.uleb128 0x2
 2085 0950 91       		.byte	0x91
 2086 0951 74       		.sleb128 -12
 2087 0952 00       		.byte	0
 2088 0953 0F       		.uleb128 0xf
 2089 0954 04       		.byte	0x4
 2090 0955 59090000 		.4byte	0x959
 2091 0959 1C       		.uleb128 0x1c
 2092 095a 68040000 		.4byte	0x468
 2093 095e 20       		.uleb128 0x20
 2094 095f FE050000 		.4byte	.LASF252
 2095 0963 01       		.byte	0x1
 2096 0964 FF02     		.2byte	0x2ff
 2097 0966 00000000 		.4byte	.LFB10
 2098 096a 88020000 		.4byte	.LFE10-.LFB10
 2099 096e 01       		.uleb128 0x1
 2100 096f 9C       		.byte	0x9c
 2101 0970 C9090000 		.4byte	0x9c9
 2102 0974 1B       		.uleb128 0x1b
 2103 0975 73170000 		.4byte	.LASF234
 2104 0979 01       		.byte	0x1
 2105 097a FF02     		.2byte	0x2ff
 2106 097c 6B000000 		.4byte	0x6b
 2107 0980 02       		.uleb128 0x2
 2108 0981 91       		.byte	0x91
 2109 0982 6F       		.sleb128 -17
 2110 0983 1B       		.uleb128 0x1b
 2111 0984 59000000 		.4byte	.LASF225
 2112 0988 01       		.byte	0x1
 2113 0989 FF02     		.2byte	0x2ff
 2114 098b AD000000 		.4byte	0xad
 2115 098f 02       		.uleb128 0x2
 2116 0990 91       		.byte	0x91
 2117 0991 68       		.sleb128 -24
 2118 0992 21       		.uleb128 0x21
 2119 0993 32000000 		.4byte	.LBB3
 2120 0997 2C000000 		.4byte	.LBE3-.LBB3
 2121 099b AF090000 		.4byte	0x9af
 2122 099f 19       		.uleb128 0x19
 2123 09a0 53130000 		.4byte	.LASF235
 2124 09a4 01       		.byte	0x1
 2125 09a5 0C03     		.2byte	0x30c
 2126 09a7 B7020000 		.4byte	0x2b7
 2127 09ab 02       		.uleb128 0x2
 2128 09ac 91       		.byte	0x91
 2129 09ad 74       		.sleb128 -12
 2130 09ae 00       		.byte	0
 2131 09af 18       		.uleb128 0x18
 2132 09b0 C8010000 		.4byte	.LBB4
 2133 09b4 3A000000 		.4byte	.LBE4-.LBB4
 2134 09b8 19       		.uleb128 0x19
 2135 09b9 300C0000 		.4byte	.LASF236
ARM GAS  C:\Users\mliha\AppData\Local\Temp\cc428Uxc.s 			page 62


 2136 09bd 01       		.byte	0x1
 2137 09be D403     		.2byte	0x3d4
 2138 09c0 76000000 		.4byte	0x76
 2139 09c4 02       		.uleb128 0x2
 2140 09c5 91       		.byte	0x91
 2141 09c6 76       		.sleb128 -10
 2142 09c7 00       		.byte	0
 2143 09c8 00       		.byte	0
 2144 09c9 22       		.uleb128 0x22
 2145 09ca 95010000 		.4byte	.LASF237
 2146 09ce 08       		.byte	0x8
 2147 09cf 6401     		.2byte	0x164
 2148 09d1 24070000 		.4byte	0x724
 2149 09d5 23       		.uleb128 0x23
 2150 09d6 83080000 		.4byte	.LASF238
 2151 09da 01       		.byte	0x1
 2152 09db 38       		.byte	0x38
 2153 09dc A1000000 		.4byte	0xa1
 2154 09e0 05       		.uleb128 0x5
 2155 09e1 03       		.byte	0x3
 2156 09e2 00000000 		.4byte	cyBle_eventHandlerFlag
 2157 09e6 22       		.uleb128 0x22
 2158 09e7 9E040000 		.4byte	.LASF239
 2159 09eb 08       		.byte	0x8
 2160 09ec 6701     		.2byte	0x167
 2161 09ee F7020000 		.4byte	0x2f7
 2162 09f2 22       		.uleb128 0x22
 2163 09f3 BA090000 		.4byte	.LASF240
 2164 09f7 08       		.byte	0x8
 2165 09f8 6801     		.2byte	0x168
 2166 09fa FE090000 		.4byte	0x9fe
 2167 09fe 0F       		.uleb128 0xf
 2168 09ff 04       		.byte	0x4
 2169 0a00 F7020000 		.4byte	0x2f7
 2170 0a04 23       		.uleb128 0x23
 2171 0a05 22150000 		.4byte	.LASF241
 2172 0a09 01       		.byte	0x1
 2173 0a0a 99       		.byte	0x99
 2174 0a0b 18040000 		.4byte	0x418
 2175 0a0f 05       		.uleb128 0x5
 2176 0a10 03       		.byte	0x3
 2177 0a11 00000000 		.4byte	cyBle_authInfo
 2178 0a15 0D       		.uleb128 0xd
 2179 0a16 6B000000 		.4byte	0x6b
 2180 0a1a 250A0000 		.4byte	0xa25
 2181 0a1e 0E       		.uleb128 0xe
 2182 0a1f A6000000 		.4byte	0xa6
 2183 0a23 03       		.byte	0x3
 2184 0a24 00       		.byte	0
 2185 0a25 24       		.uleb128 0x24
 2186 0a26 3E170000 		.4byte	.LASF242
 2187 0a2a 0C       		.byte	0xc
 2188 0a2b B7       		.byte	0xb7
 2189 0a2c 150A0000 		.4byte	0xa15
 2190 0a30 0D       		.uleb128 0xd
 2191 0a31 6B000000 		.4byte	0x6b
 2192 0a35 460A0000 		.4byte	0xa46
ARM GAS  C:\Users\mliha\AppData\Local\Temp\cc428Uxc.s 			page 63


 2193 0a39 0E       		.uleb128 0xe
 2194 0a3a A6000000 		.4byte	0xa6
 2195 0a3e 04       		.byte	0x4
 2196 0a3f 0E       		.uleb128 0xe
 2197 0a40 A6000000 		.4byte	0xa6
 2198 0a44 03       		.byte	0x3
 2199 0a45 00       		.byte	0
 2200 0a46 24       		.uleb128 0x24
 2201 0a47 EC000000 		.4byte	.LASF243
 2202 0a4b 0C       		.byte	0xc
 2203 0a4c B8       		.byte	0xb8
 2204 0a4d 510A0000 		.4byte	0xa51
 2205 0a51 1C       		.uleb128 0x1c
 2206 0a52 300A0000 		.4byte	0xa30
 2207 0a56 22       		.uleb128 0x22
 2208 0a57 B5140000 		.4byte	.LASF244
 2209 0a5b 0B       		.byte	0xb
 2210 0a5c 6406     		.2byte	0x664
 2211 0a5e D3070000 		.4byte	0x7d3
 2212 0a62 23       		.uleb128 0x23
 2213 0a63 58090000 		.4byte	.LASF245
 2214 0a67 01       		.byte	0x1
 2215 0a68 39       		.byte	0x39
 2216 0a69 17060000 		.4byte	0x617
 2217 0a6d 05       		.uleb128 0x5
 2218 0a6e 03       		.byte	0x3
 2219 0a6f 00000000 		.4byte	cyBle_connHandle
 2220 0a73 23       		.uleb128 0x23
 2221 0a74 82180000 		.4byte	.LASF246
 2222 0a78 01       		.byte	0x1
 2223 0a79 3A       		.byte	0x3a
 2224 0a7a A1000000 		.4byte	0xa1
 2225 0a7e 05       		.uleb128 0x5
 2226 0a7f 03       		.byte	0x3
 2227 0a80 00000000 		.4byte	cyBle_busStatus
 2228 0a84 23       		.uleb128 0x23
 2229 0a85 A7160000 		.4byte	.LASF247
 2230 0a89 01       		.byte	0x1
 2231 0a8a 3D       		.byte	0x3d
 2232 0a8b 6B000000 		.4byte	0x6b
 2233 0a8f 05       		.uleb128 0x5
 2234 0a90 03       		.byte	0x3
 2235 0a91 00000000 		.4byte	cyBle_advertisingIntervalType
 2236 0a95 00       		.byte	0
 2237              		.section	.debug_abbrev,"",%progbits
 2238              	.Ldebug_abbrev0:
 2239 0000 01       		.uleb128 0x1
 2240 0001 11       		.uleb128 0x11
 2241 0002 01       		.byte	0x1
 2242 0003 25       		.uleb128 0x25
 2243 0004 0E       		.uleb128 0xe
 2244 0005 13       		.uleb128 0x13
 2245 0006 0B       		.uleb128 0xb
 2246 0007 03       		.uleb128 0x3
 2247 0008 0E       		.uleb128 0xe
 2248 0009 1B       		.uleb128 0x1b
 2249 000a 0E       		.uleb128 0xe
ARM GAS  C:\Users\mliha\AppData\Local\Temp\cc428Uxc.s 			page 64


 2250 000b 55       		.uleb128 0x55
 2251 000c 17       		.uleb128 0x17
 2252 000d 11       		.uleb128 0x11
 2253 000e 01       		.uleb128 0x1
 2254 000f 10       		.uleb128 0x10
 2255 0010 17       		.uleb128 0x17
 2256 0011 00       		.byte	0
 2257 0012 00       		.byte	0
 2258 0013 02       		.uleb128 0x2
 2259 0014 24       		.uleb128 0x24
 2260 0015 00       		.byte	0
 2261 0016 0B       		.uleb128 0xb
 2262 0017 0B       		.uleb128 0xb
 2263 0018 3E       		.uleb128 0x3e
 2264 0019 0B       		.uleb128 0xb
 2265 001a 03       		.uleb128 0x3
 2266 001b 0E       		.uleb128 0xe
 2267 001c 00       		.byte	0
 2268 001d 00       		.byte	0
 2269 001e 03       		.uleb128 0x3
 2270 001f 24       		.uleb128 0x24
 2271 0020 00       		.byte	0
 2272 0021 0B       		.uleb128 0xb
 2273 0022 0B       		.uleb128 0xb
 2274 0023 3E       		.uleb128 0x3e
 2275 0024 0B       		.uleb128 0xb
 2276 0025 03       		.uleb128 0x3
 2277 0026 08       		.uleb128 0x8
 2278 0027 00       		.byte	0
 2279 0028 00       		.byte	0
 2280 0029 04       		.uleb128 0x4
 2281 002a 16       		.uleb128 0x16
 2282 002b 00       		.byte	0
 2283 002c 03       		.uleb128 0x3
 2284 002d 0E       		.uleb128 0xe
 2285 002e 3A       		.uleb128 0x3a
 2286 002f 0B       		.uleb128 0xb
 2287 0030 3B       		.uleb128 0x3b
 2288 0031 0B       		.uleb128 0xb
 2289 0032 49       		.uleb128 0x49
 2290 0033 13       		.uleb128 0x13
 2291 0034 00       		.byte	0
 2292 0035 00       		.byte	0
 2293 0036 05       		.uleb128 0x5
 2294 0037 35       		.uleb128 0x35
 2295 0038 00       		.byte	0
 2296 0039 49       		.uleb128 0x49
 2297 003a 13       		.uleb128 0x13
 2298 003b 00       		.byte	0
 2299 003c 00       		.byte	0
 2300 003d 06       		.uleb128 0x6
 2301 003e 0F       		.uleb128 0xf
 2302 003f 00       		.byte	0
 2303 0040 0B       		.uleb128 0xb
 2304 0041 0B       		.uleb128 0xb
 2305 0042 00       		.byte	0
 2306 0043 00       		.byte	0
ARM GAS  C:\Users\mliha\AppData\Local\Temp\cc428Uxc.s 			page 65


 2307 0044 07       		.uleb128 0x7
 2308 0045 04       		.uleb128 0x4
 2309 0046 01       		.byte	0x1
 2310 0047 0B       		.uleb128 0xb
 2311 0048 0B       		.uleb128 0xb
 2312 0049 3A       		.uleb128 0x3a
 2313 004a 0B       		.uleb128 0xb
 2314 004b 3B       		.uleb128 0x3b
 2315 004c 0B       		.uleb128 0xb
 2316 004d 01       		.uleb128 0x1
 2317 004e 13       		.uleb128 0x13
 2318 004f 00       		.byte	0
 2319 0050 00       		.byte	0
 2320 0051 08       		.uleb128 0x8
 2321 0052 28       		.uleb128 0x28
 2322 0053 00       		.byte	0
 2323 0054 03       		.uleb128 0x3
 2324 0055 0E       		.uleb128 0xe
 2325 0056 1C       		.uleb128 0x1c
 2326 0057 0D       		.uleb128 0xd
 2327 0058 00       		.byte	0
 2328 0059 00       		.byte	0
 2329 005a 09       		.uleb128 0x9
 2330 005b 04       		.uleb128 0x4
 2331 005c 01       		.byte	0x1
 2332 005d 0B       		.uleb128 0xb
 2333 005e 0B       		.uleb128 0xb
 2334 005f 3A       		.uleb128 0x3a
 2335 0060 0B       		.uleb128 0xb
 2336 0061 3B       		.uleb128 0x3b
 2337 0062 05       		.uleb128 0x5
 2338 0063 01       		.uleb128 0x1
 2339 0064 13       		.uleb128 0x13
 2340 0065 00       		.byte	0
 2341 0066 00       		.byte	0
 2342 0067 0A       		.uleb128 0xa
 2343 0068 16       		.uleb128 0x16
 2344 0069 00       		.byte	0
 2345 006a 03       		.uleb128 0x3
 2346 006b 0E       		.uleb128 0xe
 2347 006c 3A       		.uleb128 0x3a
 2348 006d 0B       		.uleb128 0xb
 2349 006e 3B       		.uleb128 0x3b
 2350 006f 05       		.uleb128 0x5
 2351 0070 49       		.uleb128 0x49
 2352 0071 13       		.uleb128 0x13
 2353 0072 00       		.byte	0
 2354 0073 00       		.byte	0
 2355 0074 0B       		.uleb128 0xb
 2356 0075 13       		.uleb128 0x13
 2357 0076 01       		.byte	0x1
 2358 0077 0B       		.uleb128 0xb
 2359 0078 0B       		.uleb128 0xb
 2360 0079 3A       		.uleb128 0x3a
 2361 007a 0B       		.uleb128 0xb
 2362 007b 3B       		.uleb128 0x3b
 2363 007c 05       		.uleb128 0x5
ARM GAS  C:\Users\mliha\AppData\Local\Temp\cc428Uxc.s 			page 66


 2364 007d 01       		.uleb128 0x1
 2365 007e 13       		.uleb128 0x13
 2366 007f 00       		.byte	0
 2367 0080 00       		.byte	0
 2368 0081 0C       		.uleb128 0xc
 2369 0082 0D       		.uleb128 0xd
 2370 0083 00       		.byte	0
 2371 0084 03       		.uleb128 0x3
 2372 0085 0E       		.uleb128 0xe
 2373 0086 3A       		.uleb128 0x3a
 2374 0087 0B       		.uleb128 0xb
 2375 0088 3B       		.uleb128 0x3b
 2376 0089 05       		.uleb128 0x5
 2377 008a 49       		.uleb128 0x49
 2378 008b 13       		.uleb128 0x13
 2379 008c 38       		.uleb128 0x38
 2380 008d 0B       		.uleb128 0xb
 2381 008e 00       		.byte	0
 2382 008f 00       		.byte	0
 2383 0090 0D       		.uleb128 0xd
 2384 0091 01       		.uleb128 0x1
 2385 0092 01       		.byte	0x1
 2386 0093 49       		.uleb128 0x49
 2387 0094 13       		.uleb128 0x13
 2388 0095 01       		.uleb128 0x1
 2389 0096 13       		.uleb128 0x13
 2390 0097 00       		.byte	0
 2391 0098 00       		.byte	0
 2392 0099 0E       		.uleb128 0xe
 2393 009a 21       		.uleb128 0x21
 2394 009b 00       		.byte	0
 2395 009c 49       		.uleb128 0x49
 2396 009d 13       		.uleb128 0x13
 2397 009e 2F       		.uleb128 0x2f
 2398 009f 0B       		.uleb128 0xb
 2399 00a0 00       		.byte	0
 2400 00a1 00       		.byte	0
 2401 00a2 0F       		.uleb128 0xf
 2402 00a3 0F       		.uleb128 0xf
 2403 00a4 00       		.byte	0
 2404 00a5 0B       		.uleb128 0xb
 2405 00a6 0B       		.uleb128 0xb
 2406 00a7 49       		.uleb128 0x49
 2407 00a8 13       		.uleb128 0x13
 2408 00a9 00       		.byte	0
 2409 00aa 00       		.byte	0
 2410 00ab 10       		.uleb128 0x10
 2411 00ac 0D       		.uleb128 0xd
 2412 00ad 00       		.byte	0
 2413 00ae 03       		.uleb128 0x3
 2414 00af 08       		.uleb128 0x8
 2415 00b0 3A       		.uleb128 0x3a
 2416 00b1 0B       		.uleb128 0xb
 2417 00b2 3B       		.uleb128 0x3b
 2418 00b3 05       		.uleb128 0x5
 2419 00b4 49       		.uleb128 0x49
 2420 00b5 13       		.uleb128 0x13
ARM GAS  C:\Users\mliha\AppData\Local\Temp\cc428Uxc.s 			page 67


 2421 00b6 38       		.uleb128 0x38
 2422 00b7 0B       		.uleb128 0xb
 2423 00b8 00       		.byte	0
 2424 00b9 00       		.byte	0
 2425 00ba 11       		.uleb128 0x11
 2426 00bb 13       		.uleb128 0x13
 2427 00bc 01       		.byte	0x1
 2428 00bd 0B       		.uleb128 0xb
 2429 00be 0B       		.uleb128 0xb
 2430 00bf 3A       		.uleb128 0x3a
 2431 00c0 0B       		.uleb128 0xb
 2432 00c1 3B       		.uleb128 0x3b
 2433 00c2 0B       		.uleb128 0xb
 2434 00c3 01       		.uleb128 0x1
 2435 00c4 13       		.uleb128 0x13
 2436 00c5 00       		.byte	0
 2437 00c6 00       		.byte	0
 2438 00c7 12       		.uleb128 0x12
 2439 00c8 0D       		.uleb128 0xd
 2440 00c9 00       		.byte	0
 2441 00ca 03       		.uleb128 0x3
 2442 00cb 0E       		.uleb128 0xe
 2443 00cc 3A       		.uleb128 0x3a
 2444 00cd 0B       		.uleb128 0xb
 2445 00ce 3B       		.uleb128 0x3b
 2446 00cf 0B       		.uleb128 0xb
 2447 00d0 49       		.uleb128 0x49
 2448 00d1 13       		.uleb128 0x13
 2449 00d2 38       		.uleb128 0x38
 2450 00d3 0B       		.uleb128 0xb
 2451 00d4 00       		.byte	0
 2452 00d5 00       		.byte	0
 2453 00d6 13       		.uleb128 0x13
 2454 00d7 15       		.uleb128 0x15
 2455 00d8 01       		.byte	0x1
 2456 00d9 27       		.uleb128 0x27
 2457 00da 19       		.uleb128 0x19
 2458 00db 01       		.uleb128 0x1
 2459 00dc 13       		.uleb128 0x13
 2460 00dd 00       		.byte	0
 2461 00de 00       		.byte	0
 2462 00df 14       		.uleb128 0x14
 2463 00e0 05       		.uleb128 0x5
 2464 00e1 00       		.byte	0
 2465 00e2 49       		.uleb128 0x49
 2466 00e3 13       		.uleb128 0x13
 2467 00e4 00       		.byte	0
 2468 00e5 00       		.byte	0
 2469 00e6 15       		.uleb128 0x15
 2470 00e7 2E       		.uleb128 0x2e
 2471 00e8 01       		.byte	0x1
 2472 00e9 03       		.uleb128 0x3
 2473 00ea 0E       		.uleb128 0xe
 2474 00eb 3A       		.uleb128 0x3a
 2475 00ec 0B       		.uleb128 0xb
 2476 00ed 3B       		.uleb128 0x3b
 2477 00ee 0B       		.uleb128 0xb
ARM GAS  C:\Users\mliha\AppData\Local\Temp\cc428Uxc.s 			page 68


 2478 00ef 27       		.uleb128 0x27
 2479 00f0 19       		.uleb128 0x19
 2480 00f1 11       		.uleb128 0x11
 2481 00f2 01       		.uleb128 0x1
 2482 00f3 12       		.uleb128 0x12
 2483 00f4 06       		.uleb128 0x6
 2484 00f5 40       		.uleb128 0x40
 2485 00f6 18       		.uleb128 0x18
 2486 00f7 9642     		.uleb128 0x2116
 2487 00f9 19       		.uleb128 0x19
 2488 00fa 01       		.uleb128 0x1
 2489 00fb 13       		.uleb128 0x13
 2490 00fc 00       		.byte	0
 2491 00fd 00       		.byte	0
 2492 00fe 16       		.uleb128 0x16
 2493 00ff 05       		.uleb128 0x5
 2494 0100 00       		.byte	0
 2495 0101 03       		.uleb128 0x3
 2496 0102 0E       		.uleb128 0xe
 2497 0103 3A       		.uleb128 0x3a
 2498 0104 0B       		.uleb128 0xb
 2499 0105 3B       		.uleb128 0x3b
 2500 0106 0B       		.uleb128 0xb
 2501 0107 49       		.uleb128 0x49
 2502 0108 13       		.uleb128 0x13
 2503 0109 02       		.uleb128 0x2
 2504 010a 18       		.uleb128 0x18
 2505 010b 00       		.byte	0
 2506 010c 00       		.byte	0
 2507 010d 17       		.uleb128 0x17
 2508 010e 34       		.uleb128 0x34
 2509 010f 00       		.byte	0
 2510 0110 03       		.uleb128 0x3
 2511 0111 0E       		.uleb128 0xe
 2512 0112 3A       		.uleb128 0x3a
 2513 0113 0B       		.uleb128 0xb
 2514 0114 3B       		.uleb128 0x3b
 2515 0115 0B       		.uleb128 0xb
 2516 0116 49       		.uleb128 0x49
 2517 0117 13       		.uleb128 0x13
 2518 0118 02       		.uleb128 0x2
 2519 0119 18       		.uleb128 0x18
 2520 011a 00       		.byte	0
 2521 011b 00       		.byte	0
 2522 011c 18       		.uleb128 0x18
 2523 011d 0B       		.uleb128 0xb
 2524 011e 01       		.byte	0x1
 2525 011f 11       		.uleb128 0x11
 2526 0120 01       		.uleb128 0x1
 2527 0121 12       		.uleb128 0x12
 2528 0122 06       		.uleb128 0x6
 2529 0123 00       		.byte	0
 2530 0124 00       		.byte	0
 2531 0125 19       		.uleb128 0x19
 2532 0126 34       		.uleb128 0x34
 2533 0127 00       		.byte	0
 2534 0128 03       		.uleb128 0x3
ARM GAS  C:\Users\mliha\AppData\Local\Temp\cc428Uxc.s 			page 69


 2535 0129 0E       		.uleb128 0xe
 2536 012a 3A       		.uleb128 0x3a
 2537 012b 0B       		.uleb128 0xb
 2538 012c 3B       		.uleb128 0x3b
 2539 012d 05       		.uleb128 0x5
 2540 012e 49       		.uleb128 0x49
 2541 012f 13       		.uleb128 0x13
 2542 0130 02       		.uleb128 0x2
 2543 0131 18       		.uleb128 0x18
 2544 0132 00       		.byte	0
 2545 0133 00       		.byte	0
 2546 0134 1A       		.uleb128 0x1a
 2547 0135 2E       		.uleb128 0x2e
 2548 0136 01       		.byte	0x1
 2549 0137 03       		.uleb128 0x3
 2550 0138 0E       		.uleb128 0xe
 2551 0139 3A       		.uleb128 0x3a
 2552 013a 0B       		.uleb128 0xb
 2553 013b 3B       		.uleb128 0x3b
 2554 013c 05       		.uleb128 0x5
 2555 013d 27       		.uleb128 0x27
 2556 013e 19       		.uleb128 0x19
 2557 013f 11       		.uleb128 0x11
 2558 0140 01       		.uleb128 0x1
 2559 0141 12       		.uleb128 0x12
 2560 0142 06       		.uleb128 0x6
 2561 0143 40       		.uleb128 0x40
 2562 0144 18       		.uleb128 0x18
 2563 0145 9742     		.uleb128 0x2117
 2564 0147 19       		.uleb128 0x19
 2565 0148 01       		.uleb128 0x1
 2566 0149 13       		.uleb128 0x13
 2567 014a 00       		.byte	0
 2568 014b 00       		.byte	0
 2569 014c 1B       		.uleb128 0x1b
 2570 014d 05       		.uleb128 0x5
 2571 014e 00       		.byte	0
 2572 014f 03       		.uleb128 0x3
 2573 0150 0E       		.uleb128 0xe
 2574 0151 3A       		.uleb128 0x3a
 2575 0152 0B       		.uleb128 0xb
 2576 0153 3B       		.uleb128 0x3b
 2577 0154 05       		.uleb128 0x5
 2578 0155 49       		.uleb128 0x49
 2579 0156 13       		.uleb128 0x13
 2580 0157 02       		.uleb128 0x2
 2581 0158 18       		.uleb128 0x18
 2582 0159 00       		.byte	0
 2583 015a 00       		.byte	0
 2584 015b 1C       		.uleb128 0x1c
 2585 015c 26       		.uleb128 0x26
 2586 015d 00       		.byte	0
 2587 015e 49       		.uleb128 0x49
 2588 015f 13       		.uleb128 0x13
 2589 0160 00       		.byte	0
 2590 0161 00       		.byte	0
 2591 0162 1D       		.uleb128 0x1d
ARM GAS  C:\Users\mliha\AppData\Local\Temp\cc428Uxc.s 			page 70


 2592 0163 2E       		.uleb128 0x2e
 2593 0164 00       		.byte	0
 2594 0165 03       		.uleb128 0x3
 2595 0166 0E       		.uleb128 0xe
 2596 0167 3A       		.uleb128 0x3a
 2597 0168 0B       		.uleb128 0xb
 2598 0169 3B       		.uleb128 0x3b
 2599 016a 05       		.uleb128 0x5
 2600 016b 27       		.uleb128 0x27
 2601 016c 19       		.uleb128 0x19
 2602 016d 11       		.uleb128 0x11
 2603 016e 01       		.uleb128 0x1
 2604 016f 12       		.uleb128 0x12
 2605 0170 06       		.uleb128 0x6
 2606 0171 40       		.uleb128 0x40
 2607 0172 18       		.uleb128 0x18
 2608 0173 9742     		.uleb128 0x2117
 2609 0175 19       		.uleb128 0x19
 2610 0176 00       		.byte	0
 2611 0177 00       		.byte	0
 2612 0178 1E       		.uleb128 0x1e
 2613 0179 2E       		.uleb128 0x2e
 2614 017a 01       		.byte	0x1
 2615 017b 03       		.uleb128 0x3
 2616 017c 0E       		.uleb128 0xe
 2617 017d 3A       		.uleb128 0x3a
 2618 017e 0B       		.uleb128 0xb
 2619 017f 3B       		.uleb128 0x3b
 2620 0180 05       		.uleb128 0x5
 2621 0181 27       		.uleb128 0x27
 2622 0182 19       		.uleb128 0x19
 2623 0183 49       		.uleb128 0x49
 2624 0184 13       		.uleb128 0x13
 2625 0185 11       		.uleb128 0x11
 2626 0186 01       		.uleb128 0x1
 2627 0187 12       		.uleb128 0x12
 2628 0188 06       		.uleb128 0x6
 2629 0189 40       		.uleb128 0x40
 2630 018a 18       		.uleb128 0x18
 2631 018b 9742     		.uleb128 0x2117
 2632 018d 19       		.uleb128 0x19
 2633 018e 01       		.uleb128 0x1
 2634 018f 13       		.uleb128 0x13
 2635 0190 00       		.byte	0
 2636 0191 00       		.byte	0
 2637 0192 1F       		.uleb128 0x1f
 2638 0193 34       		.uleb128 0x34
 2639 0194 00       		.byte	0
 2640 0195 03       		.uleb128 0x3
 2641 0196 08       		.uleb128 0x8
 2642 0197 3A       		.uleb128 0x3a
 2643 0198 0B       		.uleb128 0xb
 2644 0199 3B       		.uleb128 0x3b
 2645 019a 05       		.uleb128 0x5
 2646 019b 49       		.uleb128 0x49
 2647 019c 13       		.uleb128 0x13
 2648 019d 02       		.uleb128 0x2
ARM GAS  C:\Users\mliha\AppData\Local\Temp\cc428Uxc.s 			page 71


 2649 019e 18       		.uleb128 0x18
 2650 019f 00       		.byte	0
 2651 01a0 00       		.byte	0
 2652 01a1 20       		.uleb128 0x20
 2653 01a2 2E       		.uleb128 0x2e
 2654 01a3 01       		.byte	0x1
 2655 01a4 3F       		.uleb128 0x3f
 2656 01a5 19       		.uleb128 0x19
 2657 01a6 03       		.uleb128 0x3
 2658 01a7 0E       		.uleb128 0xe
 2659 01a8 3A       		.uleb128 0x3a
 2660 01a9 0B       		.uleb128 0xb
 2661 01aa 3B       		.uleb128 0x3b
 2662 01ab 05       		.uleb128 0x5
 2663 01ac 27       		.uleb128 0x27
 2664 01ad 19       		.uleb128 0x19
 2665 01ae 11       		.uleb128 0x11
 2666 01af 01       		.uleb128 0x1
 2667 01b0 12       		.uleb128 0x12
 2668 01b1 06       		.uleb128 0x6
 2669 01b2 40       		.uleb128 0x40
 2670 01b3 18       		.uleb128 0x18
 2671 01b4 9642     		.uleb128 0x2116
 2672 01b6 19       		.uleb128 0x19
 2673 01b7 01       		.uleb128 0x1
 2674 01b8 13       		.uleb128 0x13
 2675 01b9 00       		.byte	0
 2676 01ba 00       		.byte	0
 2677 01bb 21       		.uleb128 0x21
 2678 01bc 0B       		.uleb128 0xb
 2679 01bd 01       		.byte	0x1
 2680 01be 11       		.uleb128 0x11
 2681 01bf 01       		.uleb128 0x1
 2682 01c0 12       		.uleb128 0x12
 2683 01c1 06       		.uleb128 0x6
 2684 01c2 01       		.uleb128 0x1
 2685 01c3 13       		.uleb128 0x13
 2686 01c4 00       		.byte	0
 2687 01c5 00       		.byte	0
 2688 01c6 22       		.uleb128 0x22
 2689 01c7 34       		.uleb128 0x34
 2690 01c8 00       		.byte	0
 2691 01c9 03       		.uleb128 0x3
 2692 01ca 0E       		.uleb128 0xe
 2693 01cb 3A       		.uleb128 0x3a
 2694 01cc 0B       		.uleb128 0xb
 2695 01cd 3B       		.uleb128 0x3b
 2696 01ce 05       		.uleb128 0x5
 2697 01cf 49       		.uleb128 0x49
 2698 01d0 13       		.uleb128 0x13
 2699 01d1 3F       		.uleb128 0x3f
 2700 01d2 19       		.uleb128 0x19
 2701 01d3 3C       		.uleb128 0x3c
 2702 01d4 19       		.uleb128 0x19
 2703 01d5 00       		.byte	0
 2704 01d6 00       		.byte	0
 2705 01d7 23       		.uleb128 0x23
ARM GAS  C:\Users\mliha\AppData\Local\Temp\cc428Uxc.s 			page 72


 2706 01d8 34       		.uleb128 0x34
 2707 01d9 00       		.byte	0
 2708 01da 03       		.uleb128 0x3
 2709 01db 0E       		.uleb128 0xe
 2710 01dc 3A       		.uleb128 0x3a
 2711 01dd 0B       		.uleb128 0xb
 2712 01de 3B       		.uleb128 0x3b
 2713 01df 0B       		.uleb128 0xb
 2714 01e0 49       		.uleb128 0x49
 2715 01e1 13       		.uleb128 0x13
 2716 01e2 3F       		.uleb128 0x3f
 2717 01e3 19       		.uleb128 0x19
 2718 01e4 02       		.uleb128 0x2
 2719 01e5 18       		.uleb128 0x18
 2720 01e6 00       		.byte	0
 2721 01e7 00       		.byte	0
 2722 01e8 24       		.uleb128 0x24
 2723 01e9 34       		.uleb128 0x34
 2724 01ea 00       		.byte	0
 2725 01eb 03       		.uleb128 0x3
 2726 01ec 0E       		.uleb128 0xe
 2727 01ed 3A       		.uleb128 0x3a
 2728 01ee 0B       		.uleb128 0xb
 2729 01ef 3B       		.uleb128 0x3b
 2730 01f0 0B       		.uleb128 0xb
 2731 01f1 49       		.uleb128 0x49
 2732 01f2 13       		.uleb128 0x13
 2733 01f3 3F       		.uleb128 0x3f
 2734 01f4 19       		.uleb128 0x19
 2735 01f5 3C       		.uleb128 0x3c
 2736 01f6 19       		.uleb128 0x19
 2737 01f7 00       		.byte	0
 2738 01f8 00       		.byte	0
 2739 01f9 00       		.byte	0
 2740              		.section	.debug_aranges,"",%progbits
 2741 0000 5C000000 		.4byte	0x5c
 2742 0004 0200     		.2byte	0x2
 2743 0006 00000000 		.4byte	.Ldebug_info0
 2744 000a 04       		.byte	0x4
 2745 000b 00       		.byte	0
 2746 000c 0000     		.2byte	0
 2747 000e 0000     		.2byte	0
 2748 0010 00000000 		.4byte	.LFB2
 2749 0014 98000000 		.4byte	.LFE2-.LFB2
 2750 0018 00000000 		.4byte	.LFB3
 2751 001c 0E000000 		.4byte	.LFE3-.LFB3
 2752 0020 00000000 		.4byte	.LFB4
 2753 0024 18000000 		.4byte	.LFE4-.LFB4
 2754 0028 00000000 		.4byte	.LFB5
 2755 002c 0E000000 		.4byte	.LFE5-.LFB5
 2756 0030 00000000 		.4byte	.LFB6
 2757 0034 08000000 		.4byte	.LFE6-.LFB6
 2758 0038 00000000 		.4byte	.LFB7
 2759 003c 60000000 		.4byte	.LFE7-.LFB7
 2760 0040 00000000 		.4byte	.LFB8
 2761 0044 12000000 		.4byte	.LFE8-.LFB8
 2762 0048 00000000 		.4byte	.LFB9
ARM GAS  C:\Users\mliha\AppData\Local\Temp\cc428Uxc.s 			page 73


 2763 004c 0E000000 		.4byte	.LFE9-.LFB9
 2764 0050 00000000 		.4byte	.LFB10
 2765 0054 88020000 		.4byte	.LFE10-.LFB10
 2766 0058 00000000 		.4byte	0
 2767 005c 00000000 		.4byte	0
 2768              		.section	.debug_ranges,"",%progbits
 2769              	.Ldebug_ranges0:
 2770 0000 00000000 		.4byte	.LFB2
 2771 0004 98000000 		.4byte	.LFE2
 2772 0008 00000000 		.4byte	.LFB3
 2773 000c 0E000000 		.4byte	.LFE3
 2774 0010 00000000 		.4byte	.LFB4
 2775 0014 18000000 		.4byte	.LFE4
 2776 0018 00000000 		.4byte	.LFB5
 2777 001c 0E000000 		.4byte	.LFE5
 2778 0020 00000000 		.4byte	.LFB6
 2779 0024 08000000 		.4byte	.LFE6
 2780 0028 00000000 		.4byte	.LFB7
 2781 002c 60000000 		.4byte	.LFE7
 2782 0030 00000000 		.4byte	.LFB8
 2783 0034 12000000 		.4byte	.LFE8
 2784 0038 00000000 		.4byte	.LFB9
 2785 003c 0E000000 		.4byte	.LFE9
 2786 0040 00000000 		.4byte	.LFB10
 2787 0044 88020000 		.4byte	.LFE10
 2788 0048 00000000 		.4byte	0
 2789 004c 00000000 		.4byte	0
 2790              		.section	.debug_line,"",%progbits
 2791              	.Ldebug_line0:
 2792 0000 38020000 		.section	.debug_str,"MS",%progbits,1
 2792      02001001 
 2792      00000201 
 2792      FB0E0D00 
 2792      01010101 
 2793              	.LASF210:
 2794 0000 4359424C 		.ascii	"CYBLE_DIS_CHAR_COUNT\000"
 2794      455F4449 
 2794      535F4348 
 2794      41525F43 
 2794      4F554E54 
 2795              	.LASF15:
 2796 0015 73697A65 		.ascii	"sizetype\000"
 2796      74797065 
 2796      00
 2797              	.LASF120:
 2798 001e 656B6579 		.ascii	"ekeySize\000"
 2798      53697A65 
 2798      00
 2799              	.LASF154:
 2800 0027 4359424C 		.ascii	"CYBLE_GATT_HANDLE_VALUE_CNF\000"
 2800      455F4741 
 2800      54545F48 
 2800      414E444C 
 2800      455F5641 
 2801              	.LASF223:
 2802 0043 4379426C 		.ascii	"CyBle_WriteReqHandler\000"
 2802      655F5772 
ARM GAS  C:\Users\mliha\AppData\Local\Temp\cc428Uxc.s 			page 74


 2802      69746552 
 2802      65714861 
 2802      6E646C65 
 2803              	.LASF225:
 2804 0059 6576656E 		.ascii	"eventParam\000"
 2804      74506172 
 2804      616D00
 2805              	.LASF29:
 2806 0064 4359424C 		.ascii	"CYBLE_EVT_GAP_DEVICE_CONNECTED\000"
 2806      455F4556 
 2806      545F4741 
 2806      505F4445 
 2806      56494345 
 2807              	.LASF102:
 2808 0083 4359424C 		.ascii	"CYBLE_GAP_IOCAP_NOINPUT_NOOUTPUT\000"
 2808      455F4741 
 2808      505F494F 
 2808      4341505F 
 2808      4E4F494E 
 2809              	.LASF36:
 2810 00a4 4359424C 		.ascii	"CYBLE_EVT_GATT_CONNECT_IND\000"
 2810      455F4556 
 2810      545F4741 
 2810      54545F43 
 2810      4F4E4E45 
 2811              	.LASF147:
 2812 00bf 4359424C 		.ascii	"CYBLE_GATT_WRITE_CMD\000"
 2812      455F4741 
 2812      54545F57 
 2812      52495445 
 2812      5F434D44 
 2813              	.LASF11:
 2814 00d4 75696E74 		.ascii	"uint32\000"
 2814      333200
 2815              	.LASF84:
 2816 00db 626C6550 		.ascii	"blePwrLevelInDbm\000"
 2816      77724C65 
 2816      76656C49 
 2816      6E44626D 
 2816      00
 2817              	.LASF243:
 2818 00ec 6379426C 		.ascii	"cyBle_attValuesCCCDFlashMemory\000"
 2818      655F6174 
 2818      7456616C 
 2818      75657343 
 2818      43434446 
 2819              	.LASF159:
 2820 010b 4359424C 		.ascii	"CYBLE_GATT_ERR_READ_NOT_PERMITTED\000"
 2820      455F4741 
 2820      54545F45 
 2820      52525F52 
 2820      4541445F 
 2821              	.LASF174:
 2822 012d 4359424C 		.ascii	"CYBLE_GATT_ERR_INSUFFICIENT_RESOURCE\000"
 2822      455F4741 
 2822      54545F45 
 2822      52525F49 
ARM GAS  C:\Users\mliha\AppData\Local\Temp\cc428Uxc.s 			page 75


 2822      4E535546 
 2823              	.LASF148:
 2824 0152 4359424C 		.ascii	"CYBLE_GATT_PREPARE_WRITE_REQ\000"
 2824      455F4741 
 2824      54545F50 
 2824      52455041 
 2824      52455F57 
 2825              	.LASF173:
 2826 016f 4359424C 		.ascii	"CYBLE_GATT_ERR_UNSUPPORTED_GROUP_TYPE\000"
 2826      455F4741 
 2826      54545F45 
 2826      52525F55 
 2826      4E535550 
 2827              	.LASF237:
 2828 0195 4379426C 		.ascii	"CyBle_ApplCallback\000"
 2828      655F4170 
 2828      706C4361 
 2828      6C6C6261 
 2828      636B00
 2829              	.LASF56:
 2830 01a8 4359424C 		.ascii	"CYBLE_EVT_GATTS_DATA_SIGNED_CMD_REQ\000"
 2830      455F4556 
 2830      545F4741 
 2830      5454535F 
 2830      44415441 
 2831              	.LASF65:
 2832 01cc 4359424C 		.ascii	"CYBLE_EVT_L2CAP_CBFC_RX_CREDIT_IND\000"
 2832      455F4556 
 2832      545F4C32 
 2832      4341505F 
 2832      43424643 
 2833              	.LASF189:
 2834 01ef 4359424C 		.ascii	"CYBLE_GATT_VALUE_T\000"
 2834      455F4741 
 2834      54545F56 
 2834      414C5545 
 2834      5F5400
 2835              	.LASF142:
 2836 0202 4359424C 		.ascii	"CYBLE_GATT_READ_MULTIPLE_RSP\000"
 2836      455F4741 
 2836      54545F52 
 2836      4541445F 
 2836      4D554C54 
 2837              	.LASF88:
 2838 021f 74797065 		.ascii	"type\000"
 2838      00
 2839              	.LASF94:
 2840 0224 4359424C 		.ascii	"CYBLE_TO_REASON_CODE_T\000"
 2840      455F544F 
 2840      5F524541 
 2840      534F4E5F 
 2840      434F4445 
 2841              	.LASF115:
 2842 023b 4359424C 		.ascii	"CYBLE_GAP_AUTH_ERROR_AUTHENTICATION_TIMEOUT\000"
 2842      455F4741 
 2842      505F4155 
 2842      54485F45 
ARM GAS  C:\Users\mliha\AppData\Local\Temp\cc428Uxc.s 			page 76


 2842      52524F52 
 2843              	.LASF112:
 2844 0267 4359424C 		.ascii	"CYBLE_GAP_AUTH_ERROR_UNSPECIFIED_REASON\000"
 2844      455F4741 
 2844      505F4155 
 2844      54485F45 
 2844      52524F52 
 2845              	.LASF136:
 2846 028f 4359424C 		.ascii	"CYBLE_GATT_READ_BY_TYPE_RSP\000"
 2846      455F4741 
 2846      54545F52 
 2846      4541445F 
 2846      42595F54 
 2847              	.LASF200:
 2848 02ab 4359424C 		.ascii	"CYBLE_CALLBACK_T\000"
 2848      455F4341 
 2848      4C4C4241 
 2848      434B5F54 
 2848      00
 2849              	.LASF205:
 2850 02bc 4359424C 		.ascii	"CYBLE_DIS_FIRMWARE_REV\000"
 2850      455F4449 
 2850      535F4649 
 2850      524D5741 
 2850      52455F52 
 2851              	.LASF53:
 2852 02d3 4359424C 		.ascii	"CYBLE_EVT_GATTC_HANDLE_VALUE_NTF\000"
 2852      455F4556 
 2852      545F4741 
 2852      5454435F 
 2852      48414E44 
 2853              	.LASF23:
 2854 02f4 4359424C 		.ascii	"CYBLE_EVT_GAP_AUTH_REQ\000"
 2854      455F4556 
 2854      545F4741 
 2854      505F4155 
 2854      54485F52 
 2855              	.LASF187:
 2856 030b 4359424C 		.ascii	"CYBLE_CONN_HANDLE_T\000"
 2856      455F434F 
 2856      4E4E5F48 
 2856      414E444C 
 2856      455F5400 
 2857              	.LASF134:
 2858 031f 4359424C 		.ascii	"CYBLE_GATT_FIND_BY_TYPE_VALUE_RSP\000"
 2858      455F4741 
 2858      54545F46 
 2858      494E445F 
 2858      42595F54 
 2859              	.LASF99:
 2860 0341 4359424C 		.ascii	"CYBLE_GAP_IOCAP_DISPLAY_ONLY\000"
 2860      455F4741 
 2860      505F494F 
 2860      4341505F 
 2860      44495350 
 2861              	.LASF73:
 2862 035e 4359424C 		.ascii	"CYBLE_LL_PWR_LVL_NEG_3_DBM\000"
ARM GAS  C:\Users\mliha\AppData\Local\Temp\cc428Uxc.s 			page 77


 2862      455F4C4C 
 2862      5F505752 
 2862      5F4C564C 
 2862      5F4E4547 
 2863              	.LASF218:
 2864 0379 4359424C 		.ascii	"CYBLE_STATE_ADVERTISING\000"
 2864      455F5354 
 2864      4154455F 
 2864      41445645 
 2864      52544953 
 2865              	.LASF185:
 2866 0391 62644861 		.ascii	"bdHandle\000"
 2866      6E646C65 
 2866      00
 2867              	.LASF105:
 2868 039a 4359424C 		.ascii	"CYBLE_GAP_AUTH_ERROR_PASSKEY_ENTRY_FAILED\000"
 2868      455F4741 
 2868      505F4155 
 2868      54485F45 
 2868      52524F52 
 2869              	.LASF249:
 2870 03c4 2E5C4765 		.ascii	".\\Generated_Source\\PSoC4\\BLE_1_eventHandler.c\000"
 2870      6E657261 
 2870      7465645F 
 2870      536F7572 
 2870      63655C50 
 2871              	.LASF130:
 2872 03f2 4359424C 		.ascii	"CYBLE_GATT_XCHNG_MTU_RSP\000"
 2872      455F4741 
 2872      54545F58 
 2872      43484E47 
 2872      5F4D5455 
 2873              	.LASF49:
 2874 040b 4359424C 		.ascii	"CYBLE_EVT_GATTS_WRITE_CMD_REQ\000"
 2874      455F4556 
 2874      545F4741 
 2874      5454535F 
 2874      57524954 
 2875              	.LASF4:
 2876 0429 6C6F6E67 		.ascii	"long int\000"
 2876      20696E74 
 2876      00
 2877              	.LASF95:
 2878 0432 4359424C 		.ascii	"CYBLE_GAP_SEC_LEVEL_1\000"
 2878      455F4741 
 2878      505F5345 
 2878      435F4C45 
 2878      56454C5F 
 2879              	.LASF96:
 2880 0448 4359424C 		.ascii	"CYBLE_GAP_SEC_LEVEL_2\000"
 2880      455F4741 
 2880      505F5345 
 2880      435F4C45 
 2880      56454C5F 
 2881              	.LASF97:
 2882 045e 4359424C 		.ascii	"CYBLE_GAP_SEC_LEVEL_3\000"
 2882      455F4741 
ARM GAS  C:\Users\mliha\AppData\Local\Temp\cc428Uxc.s 			page 78


 2882      505F5345 
 2882      435F4C45 
 2882      56454C5F 
 2883              	.LASF17:
 2884 0474 4359424C 		.ascii	"CYBLE_EVT_STACK_ON\000"
 2884      455F4556 
 2884      545F5354 
 2884      41434B5F 
 2884      4F4E00
 2885              	.LASF204:
 2886 0487 4359424C 		.ascii	"CYBLE_DIS_HARDWARE_REV\000"
 2886      455F4449 
 2886      535F4841 
 2886      52445741 
 2886      52455F52 
 2887              	.LASF239:
 2888 049e 6379426C 		.ascii	"cyBle_deviceAddress\000"
 2888      655F6465 
 2888      76696365 
 2888      41646472 
 2888      65737300 
 2889              	.LASF161:
 2890 04b2 4359424C 		.ascii	"CYBLE_GATT_ERR_INVALID_PDU\000"
 2890      455F4741 
 2890      54545F45 
 2890      52525F49 
 2890      4E56414C 
 2891              	.LASF108:
 2892 04cd 4359424C 		.ascii	"CYBLE_GAP_AUTH_ERROR_CONFIRM_VALUE_NOT_MATCH\000"
 2892      455F4741 
 2892      505F4155 
 2892      54485F45 
 2892      52524F52 
 2893              	.LASF250:
 2894 04fa 443A5C45 		.ascii	"D:\\ECEG_Labs\\BLE Lab 3\\BLE Lab 3.cydsn\000"
 2894      4345475F 
 2894      4C616273 
 2894      5C424C45 
 2894      204C6162 
 2895              	.LASF192:
 2896 0521 4359424C 		.ascii	"CYBLE_GATT_HANDLE_VALUE_PAIR_T\000"
 2896      455F4741 
 2896      54545F48 
 2896      414E444C 
 2896      455F5641 
 2897              	.LASF85:
 2898 0540 626C6553 		.ascii	"bleSsChId\000"
 2898      73436849 
 2898      6400
 2899              	.LASF59:
 2900 054a 4359424C 		.ascii	"CYBLE_EVT_L2CAP_COMMAND_REJ\000"
 2900      455F4556 
 2900      545F4C32 
 2900      4341505F 
 2900      434F4D4D 
 2901              	.LASF140:
 2902 0566 4359424C 		.ascii	"CYBLE_GATT_READ_BLOB_RSP\000"
ARM GAS  C:\Users\mliha\AppData\Local\Temp\cc428Uxc.s 			page 79


 2902      455F4741 
 2902      54545F52 
 2902      4541445F 
 2902      424C4F42 
 2903              	.LASF170:
 2904 057f 4359424C 		.ascii	"CYBLE_GATT_ERR_INVALID_ATTRIBUTE_LEN\000"
 2904      455F4741 
 2904      54545F45 
 2904      52525F49 
 2904      4E56414C 
 2905              	.LASF0:
 2906 05a4 7369676E 		.ascii	"signed char\000"
 2906      65642063 
 2906      68617200 
 2907              	.LASF70:
 2908 05b0 4359424C 		.ascii	"CYBLE_LL_PWR_LVL_NEG_18_DBM\000"
 2908      455F4C4C 
 2908      5F505752 
 2908      5F4C564C 
 2908      5F4E4547 
 2909              	.LASF131:
 2910 05cc 4359424C 		.ascii	"CYBLE_GATT_FIND_INFO_REQ\000"
 2910      455F4741 
 2910      54545F46 
 2910      494E445F 
 2910      494E464F 
 2911              	.LASF19:
 2912 05e5 4359424C 		.ascii	"CYBLE_EVT_HARDWARE_ERROR\000"
 2912      455F4556 
 2912      545F4841 
 2912      52445741 
 2912      52455F45 
 2913              	.LASF252:
 2914 05fe 4379426C 		.ascii	"CyBle_EventHandler\000"
 2914      655F4576 
 2914      656E7448 
 2914      616E646C 
 2914      657200
 2915              	.LASF83:
 2916 0611 4359424C 		.ascii	"CYBLE_BLESS_PHY_CH_GRP_ID_T\000"
 2916      455F424C 
 2916      4553535F 
 2916      5048595F 
 2916      43485F47 
 2917              	.LASF180:
 2918 062d 4359424C 		.ascii	"CYBLE_GATT_ERR_CCCD_IMPROPERLY_CONFIGURED\000"
 2918      455F4741 
 2918      54545F45 
 2918      52525F43 
 2918      4343445F 
 2919              	.LASF40:
 2920 0657 4359424C 		.ascii	"CYBLE_EVT_GATTC_READ_BY_GROUP_TYPE_RSP\000"
 2920      455F4556 
 2920      545F4741 
 2920      5454435F 
 2920      52454144 
 2921              	.LASF215:
ARM GAS  C:\Users\mliha\AppData\Local\Temp\cc428Uxc.s 			page 80


 2922 067e 4359424C 		.ascii	"CYBLE_STATE_STOPPED\000"
 2922      455F5354 
 2922      4154455F 
 2922      53544F50 
 2922      50454400 
 2923              	.LASF197:
 2924 0692 4359424C 		.ascii	"CYBLE_GATTS_ERR_PARAM_T\000"
 2924      455F4741 
 2924      5454535F 
 2924      4552525F 
 2924      50415241 
 2925              	.LASF1:
 2926 06aa 756E7369 		.ascii	"unsigned char\000"
 2926      676E6564 
 2926      20636861 
 2926      7200
 2927              	.LASF39:
 2928 06b8 4359424C 		.ascii	"CYBLE_EVT_GATTC_XCHNG_MTU_RSP\000"
 2928      455F4556 
 2928      545F4741 
 2928      5454435F 
 2928      5843484E 
 2929              	.LASF153:
 2930 06d6 4359424C 		.ascii	"CYBLE_GATT_HANDLE_VALUE_IND\000"
 2930      455F4741 
 2930      54545F48 
 2930      414E444C 
 2930      455F5641 
 2931              	.LASF66:
 2932 06f2 4359424C 		.ascii	"CYBLE_EVT_L2CAP_CBFC_TX_CREDIT_IND\000"
 2932      455F4556 
 2932      545F4C32 
 2932      4341505F 
 2932      43424643 
 2933              	.LASF196:
 2934 0715 6572726F 		.ascii	"errorCode\000"
 2934      72436F64 
 2934      6500
 2935              	.LASF114:
 2936 071f 4359424C 		.ascii	"CYBLE_GAP_AUTH_ERROR_INVALID_PARAMETERS\000"
 2936      455F4741 
 2936      505F4155 
 2936      54485F45 
 2936      52524F52 
 2937              	.LASF63:
 2938 0747 4359424C 		.ascii	"CYBLE_EVT_L2CAP_CBFC_DISCONN_CNF\000"
 2938      455F4556 
 2938      545F4C32 
 2938      4341505F 
 2938      43424643 
 2939              	.LASF43:
 2940 0768 4359424C 		.ascii	"CYBLE_EVT_GATTC_FIND_BY_TYPE_VALUE_RSP\000"
 2940      455F4556 
 2940      545F4741 
 2940      5454435F 
 2940      46494E44 
 2941              	.LASF14:
ARM GAS  C:\Users\mliha\AppData\Local\Temp\cc428Uxc.s 			page 81


 2942 078f 63686172 		.ascii	"char\000"
 2942      00
 2943              	.LASF74:
 2944 0794 4359424C 		.ascii	"CYBLE_LL_PWR_LVL_NEG_2_DBM\000"
 2944      455F4C4C 
 2944      5F505752 
 2944      5F4C564C 
 2944      5F4E4547 
 2945              	.LASF146:
 2946 07af 4359424C 		.ascii	"CYBLE_GATT_WRITE_RSP\000"
 2946      455F4741 
 2946      54545F57 
 2946      52495445 
 2946      5F525350 
 2947              	.LASF46:
 2948 07c4 4359424C 		.ascii	"CYBLE_EVT_GATTC_READ_MULTI_RSP\000"
 2948      455F4556 
 2948      545F4741 
 2948      5454435F 
 2948      52454144 
 2949              	.LASF122:
 2950 07e3 4359424C 		.ascii	"CYBLE_GAP_AUTH_INFO_T\000"
 2950      455F4741 
 2950      505F4155 
 2950      54485F49 
 2950      4E464F5F 
 2951              	.LASF101:
 2952 07f9 4359424C 		.ascii	"CYBLE_GAP_IOCAP_KEYBOARD_ONLY\000"
 2952      455F4741 
 2952      505F494F 
 2952      4341505F 
 2952      4B455942 
 2953              	.LASF16:
 2954 0817 4359424C 		.ascii	"CYBLE_EVT_HOST_INVALID\000"
 2954      455F4556 
 2954      545F484F 
 2954      53545F49 
 2954      4E56414C 
 2955              	.LASF171:
 2956 082e 4359424C 		.ascii	"CYBLE_GATT_ERR_UNLIKELY_ERROR\000"
 2956      455F4741 
 2956      54545F45 
 2956      52525F55 
 2956      4E4C494B 
 2957              	.LASF129:
 2958 084c 4359424C 		.ascii	"CYBLE_GATT_XCNHG_MTU_REQ\000"
 2958      455F4741 
 2958      54545F58 
 2958      434E4847 
 2958      5F4D5455 
 2959              	.LASF45:
 2960 0865 4359424C 		.ascii	"CYBLE_EVT_GATTC_READ_BLOB_RSP\000"
 2960      455F4556 
 2960      545F4741 
 2960      5454435F 
 2960      52454144 
 2961              	.LASF238:
ARM GAS  C:\Users\mliha\AppData\Local\Temp\cc428Uxc.s 			page 82


 2962 0883 6379426C 		.ascii	"cyBle_eventHandlerFlag\000"
 2962      655F6576 
 2962      656E7448 
 2962      616E646C 
 2962      6572466C 
 2963              	.LASF52:
 2964 089a 4359424C 		.ascii	"CYBLE_EVT_GATTC_EXEC_WRITE_RSP\000"
 2964      455F4556 
 2964      545F4741 
 2964      5454435F 
 2964      45584543 
 2965              	.LASF175:
 2966 08b9 4359424C 		.ascii	"CYBLE_GATT_ERR_HEART_RATE_CONTROL_POINT_NOT_SUPPORT"
 2966      455F4741 
 2966      54545F45 
 2966      52525F48 
 2966      45415254 
 2967 08ec 454400   		.ascii	"ED\000"
 2968              	.LASF168:
 2969 08ef 4359424C 		.ascii	"CYBLE_GATT_ERR_ATTRIBUTE_NOT_LONG\000"
 2969      455F4741 
 2969      54545F45 
 2969      52525F41 
 2969      54545249 
 2970              	.LASF98:
 2971 0911 4359424C 		.ascii	"CYBLE_GAP_SEC_LEVEL_MASK\000"
 2971      455F4741 
 2971      505F5345 
 2971      435F4C45 
 2971      56454C5F 
 2972              	.LASF206:
 2973 092a 4359424C 		.ascii	"CYBLE_DIS_SOFTWARE_REV\000"
 2973      455F4449 
 2973      535F534F 
 2973      46545741 
 2973      52455F52 
 2974              	.LASF202:
 2975 0941 4359424C 		.ascii	"CYBLE_DIS_MODEL_NUMBER\000"
 2975      455F4449 
 2975      535F4D4F 
 2975      44454C5F 
 2975      4E554D42 
 2976              	.LASF245:
 2977 0958 6379426C 		.ascii	"cyBle_connHandle\000"
 2977      655F636F 
 2977      6E6E4861 
 2977      6E646C65 
 2977      00
 2978              	.LASF207:
 2979 0969 4359424C 		.ascii	"CYBLE_DIS_SYSTEM_ID\000"
 2979      455F4449 
 2979      535F5359 
 2979      5354454D 
 2979      5F494400 
 2980              	.LASF128:
 2981 097d 4359424C 		.ascii	"CYBLE_GATT_ERROR_RSP\000"
 2981      455F4741 
ARM GAS  C:\Users\mliha\AppData\Local\Temp\cc428Uxc.s 			page 83


 2981      54545F45 
 2981      52524F52 
 2981      5F525350 
 2982              	.LASF233:
 2983 0992 4379426C 		.ascii	"CyBle_GapConnUpdateCompleteEventHandler\000"
 2983      655F4761 
 2983      70436F6E 
 2983      6E557064 
 2983      61746543 
 2984              	.LASF240:
 2985 09ba 6379426C 		.ascii	"cyBle_sflashDeviceAddress\000"
 2985      655F7366 
 2985      6C617368 
 2985      44657669 
 2985      63654164 
 2986              	.LASF155:
 2987 09d4 4359424C 		.ascii	"CYBLE_GATT_SIGNED_WRITE_CMD\000"
 2987      455F4741 
 2987      54545F53 
 2987      49474E45 
 2987      445F5752 
 2988              	.LASF178:
 2989 09f0 4359424C 		.ascii	"CYBLE_GATTS_ERR_CCCD_IMPROPERLY_CONFIGURED\000"
 2989      455F4741 
 2989      5454535F 
 2989      4552525F 
 2989      43434344 
 2990              	.LASF151:
 2991 0a1b 4359424C 		.ascii	"CYBLE_GATT_EXECUTE_WRITE_RSP\000"
 2991      455F4741 
 2991      54545F45 
 2991      58454355 
 2991      54455F57 
 2992              	.LASF58:
 2993 0a38 4359424C 		.ascii	"CYBLE_EVT_L2CAP_CONN_PARAM_UPDATE_RSP\000"
 2993      455F4556 
 2993      545F4C32 
 2993      4341505F 
 2993      434F4E4E 
 2994              	.LASF116:
 2995 0a5e 4359424C 		.ascii	"CYBLE_GAP_AUTH_ERROR_LINK_DISCONNECTED\000"
 2995      455F4741 
 2995      505F4155 
 2995      54485F45 
 2995      52524F52 
 2996              	.LASF26:
 2997 0a85 4359424C 		.ascii	"CYBLE_EVT_GAP_AUTH_COMPLETE\000"
 2997      455F4556 
 2997      545F4741 
 2997      505F4155 
 2997      54485F43 
 2998              	.LASF27:
 2999 0aa1 4359424C 		.ascii	"CYBLE_EVT_GAP_AUTH_FAILED\000"
 2999      455F4556 
 2999      545F4741 
 2999      505F4155 
 2999      54485F46 
ARM GAS  C:\Users\mliha\AppData\Local\Temp\cc428Uxc.s 			page 84


 3000              	.LASF144:
 3001 0abb 4359424C 		.ascii	"CYBLE_GATT_READ_BY_GROUP_RSP\000"
 3001      455F4741 
 3001      54545F52 
 3001      4541445F 
 3001      42595F47 
 3002              	.LASF166:
 3003 0ad8 4359424C 		.ascii	"CYBLE_GATT_ERR_PREPARE_WRITE_QUEUE_FULL\000"
 3003      455F4741 
 3003      54545F45 
 3003      52525F50 
 3003      52455041 
 3004              	.LASF76:
 3005 0b00 4359424C 		.ascii	"CYBLE_LL_PWR_LVL_3_DBM\000"
 3005      455F4C4C 
 3005      5F505752 
 3005      5F4C564C 
 3005      5F335F44 
 3006              	.LASF5:
 3007 0b17 6C6F6E67 		.ascii	"long unsigned int\000"
 3007      20756E73 
 3007      69676E65 
 3007      6420696E 
 3007      7400
 3008              	.LASF137:
 3009 0b29 4359424C 		.ascii	"CYBLE_GATT_READ_REQ\000"
 3009      455F4741 
 3009      54545F52 
 3009      4541445F 
 3009      52455100 
 3010              	.LASF123:
 3011 0b3d 73746174 		.ascii	"status\000"
 3011      757300
 3012              	.LASF75:
 3013 0b44 4359424C 		.ascii	"CYBLE_LL_PWR_LVL_NEG_1_DBM\000"
 3013      455F4C4C 
 3013      5F505752 
 3013      5F4C564C 
 3013      5F4E4547 
 3014              	.LASF111:
 3015 0b5f 4359424C 		.ascii	"CYBLE_GAP_AUTH_ERROR_COMMAND_NOT_SUPPORTED\000"
 3015      455F4741 
 3015      505F4155 
 3015      54485F45 
 3015      52524F52 
 3016              	.LASF107:
 3017 0b8a 4359424C 		.ascii	"CYBLE_GAP_AUTH_ERROR_AUTHENTICATION_REQ_NOT_MET\000"
 3017      455F4741 
 3017      505F4155 
 3017      54485F45 
 3017      52524F52 
 3018              	.LASF152:
 3019 0bba 4359424C 		.ascii	"CYBLE_GATT_HANDLE_VALUE_NTF\000"
 3019      455F4741 
 3019      54545F48 
 3019      414E444C 
 3019      455F5641 
ARM GAS  C:\Users\mliha\AppData\Local\Temp\cc428Uxc.s 			page 85


 3020              	.LASF203:
 3021 0bd6 4359424C 		.ascii	"CYBLE_DIS_SERIAL_NUMBER\000"
 3021      455F4449 
 3021      535F5345 
 3021      5249414C 
 3021      5F4E554D 
 3022              	.LASF32:
 3023 0bee 4359424C 		.ascii	"CYBLE_EVT_GAP_CONNECTION_UPDATE_COMPLETE\000"
 3023      455F4556 
 3023      545F4741 
 3023      505F434F 
 3023      4E4E4543 
 3024              	.LASF216:
 3025 0c17 4359424C 		.ascii	"CYBLE_STATE_INITIALIZING\000"
 3025      455F5354 
 3025      4154455F 
 3025      494E4954 
 3025      49414C49 
 3026              	.LASF236:
 3027 0c30 6379426C 		.ascii	"cyBle_mtuSize\000"
 3027      655F6D74 
 3027      7553697A 
 3027      6500
 3028              	.LASF113:
 3029 0c3e 4359424C 		.ascii	"CYBLE_GAP_AUTH_ERROR_REPEATED_ATTEMPTS\000"
 3029      455F4741 
 3029      505F4155 
 3029      54485F45 
 3029      52524F52 
 3030              	.LASF62:
 3031 0c65 4359424C 		.ascii	"CYBLE_EVT_L2CAP_CBFC_DISCONN_IND\000"
 3031      455F4556 
 3031      545F4C32 
 3031      4341505F 
 3031      43424643 
 3032              	.LASF24:
 3033 0c86 4359424C 		.ascii	"CYBLE_EVT_GAP_PASSKEY_ENTRY_REQUEST\000"
 3033      455F4556 
 3033      545F4741 
 3033      505F5041 
 3033      53534B45 
 3034              	.LASF79:
 3035 0caa 4359424C 		.ascii	"CYBLE_BLESS_PWR_LVL_T\000"
 3035      455F424C 
 3035      4553535F 
 3035      5057525F 
 3035      4C564C5F 
 3036              	.LASF228:
 3037 0cc0 4379426C 		.ascii	"CyBle_GattConnectReqHandler\000"
 3037      655F4761 
 3037      7474436F 
 3037      6E6E6563 
 3037      74526571 
 3038              	.LASF110:
 3039 0cdc 4359424C 		.ascii	"CYBLE_GAP_AUTH_ERROR_INSUFFICIENT_ENCRYPTION_KEY_SI"
 3039      455F4741 
 3039      505F4155 
ARM GAS  C:\Users\mliha\AppData\Local\Temp\cc428Uxc.s 			page 86


 3039      54485F45 
 3039      52524F52 
 3040 0d0f 5A4500   		.ascii	"ZE\000"
 3041              	.LASF212:
 3042 0d12 4359424C 		.ascii	"CYBLE_HRS_BSL\000"
 3042      455F4852 
 3042      535F4253 
 3042      4C00
 3043              	.LASF6:
 3044 0d20 6C6F6E67 		.ascii	"long long int\000"
 3044      206C6F6E 
 3044      6720696E 
 3044      7400
 3045              	.LASF227:
 3046 0d2e 4379426C 		.ascii	"CyBle_GattDisconnectEventHandler\000"
 3046      655F4761 
 3046      74744469 
 3046      73636F6E 
 3046      6E656374 
 3047              	.LASF209:
 3048 0d4f 4359424C 		.ascii	"CYBLE_DIS_PNP_ID\000"
 3048      455F4449 
 3048      535F504E 
 3048      505F4944 
 3048      00
 3049              	.LASF229:
 3050 0d60 73666C61 		.ascii	"sflashDeviceAddress\000"
 3050      73684465 
 3050      76696365 
 3050      41646472 
 3050      65737300 
 3051              	.LASF13:
 3052 0d74 646F7562 		.ascii	"double\000"
 3052      6C6500
 3053              	.LASF68:
 3054 0d7b 4359424C 		.ascii	"CYBLE_EVT_PENDING_FLASH_WRITE\000"
 3054      455F4556 
 3054      545F5045 
 3054      4E44494E 
 3054      475F464C 
 3055              	.LASF169:
 3056 0d99 4359424C 		.ascii	"CYBLE_GATT_ERR_INSUFFICIENT_ENC_KEY_SIZE\000"
 3056      455F4741 
 3056      54545F45 
 3056      52525F49 
 3056      4E535546 
 3057              	.LASF78:
 3058 0dc2 4359424C 		.ascii	"CYBLE_LL_PWR_LVL_MAX\000"
 3058      455F4C4C 
 3058      5F505752 
 3058      5F4C564C 
 3058      5F4D4158 
 3059              	.LASF181:
 3060 0dd7 4359424C 		.ascii	"CYBLE_GATT_ERR_PROCEDURE_ALREADY_IN_PROGRESS\000"
 3060      455F4741 
 3060      54545F45 
 3060      52525F50 
ARM GAS  C:\Users\mliha\AppData\Local\Temp\cc428Uxc.s 			page 87


 3060      524F4345 
 3061              	.LASF224:
 3062 0e04 4379426C 		.ascii	"CyBle_ValueConfirmation\000"
 3062      655F5661 
 3062      6C756543 
 3062      6F6E6669 
 3062      726D6174 
 3063              	.LASF12:
 3064 0e1c 666C6F61 		.ascii	"float\000"
 3064      7400
 3065              	.LASF195:
 3066 0e22 6F70636F 		.ascii	"opcode\000"
 3066      646500
 3067              	.LASF165:
 3068 0e29 4359424C 		.ascii	"CYBLE_GATT_ERR_INSUFFICIENT_AUTHORIZATION\000"
 3068      455F4741 
 3068      54545F45 
 3068      52525F49 
 3068      4E535546 
 3069              	.LASF191:
 3070 0e53 61747472 		.ascii	"attrHandle\000"
 3070      48616E64 
 3070      6C6500
 3071              	.LASF119:
 3072 0e5e 626F6E64 		.ascii	"bonding\000"
 3072      696E6700 
 3073              	.LASF199:
 3074 0e66 4359424C 		.ascii	"CYBLE_GATTS_WRITE_REQ_PARAM_T\000"
 3074      455F4741 
 3074      5454535F 
 3074      57524954 
 3074      455F5245 
 3075              	.LASF8:
 3076 0e84 756E7369 		.ascii	"unsigned int\000"
 3076      676E6564 
 3076      20696E74 
 3076      00
 3077              	.LASF50:
 3078 0e91 4359424C 		.ascii	"CYBLE_EVT_GATTS_PREP_WRITE_REQ\000"
 3078      455F4556 
 3078      545F4741 
 3078      5454535F 
 3078      50524550 
 3079              	.LASF162:
 3080 0eb0 4359424C 		.ascii	"CYBLE_GATT_ERR_INSUFFICIENT_AUTHENTICATION\000"
 3080      455F4741 
 3080      54545F45 
 3080      52525F49 
 3080      4E535546 
 3081              	.LASF194:
 3082 0edb 4359424C 		.ascii	"CYBLE_GATT_XCHG_MTU_PARAM_T\000"
 3082      455F4741 
 3082      54545F58 
 3082      4348475F 
 3082      4D54555F 
 3083              	.LASF208:
 3084 0ef7 4359424C 		.ascii	"CYBLE_DIS_REG_CERT_DATA\000"
ARM GAS  C:\Users\mliha\AppData\Local\Temp\cc428Uxc.s 			page 88


 3084      455F4449 
 3084      535F5245 
 3084      475F4345 
 3084      52545F44 
 3085              	.LASF81:
 3086 0f0f 4359424C 		.ascii	"CYBLE_LL_CONN_CH_TYPE\000"
 3086      455F4C4C 
 3086      5F434F4E 
 3086      4E5F4348 
 3086      5F545950 
 3087              	.LASF248:
 3088 0f25 474E5520 		.ascii	"GNU C 4.8.4 20140526 (release) [ARM/embedded-4_8-br"
 3088      4320342E 
 3088      382E3420 
 3088      32303134 
 3088      30353236 
 3089 0f58 616E6368 		.ascii	"anch revision 211358] -mcpu=cortex-m0 -mthumb -g -O"
 3089      20726576 
 3089      6973696F 
 3089      6E203231 
 3089      31333538 
 3090 0f8b 30202D66 		.ascii	"0 -ffunction-sections\000"
 3090      66756E63 
 3090      74696F6E 
 3090      2D736563 
 3090      74696F6E 
 3091              	.LASF177:
 3092 0fa1 4359424C 		.ascii	"CYBLE_GATTS_ERR_PROCEDURE_ALREADY_IN_PROGRESS\000"
 3092      455F4741 
 3092      5454535F 
 3092      4552525F 
 3092      50524F43 
 3093              	.LASF222:
 3094 0fcf 6572725F 		.ascii	"err_param\000"
 3094      70617261 
 3094      6D00
 3095              	.LASF149:
 3096 0fd9 4359424C 		.ascii	"CYBLE_GATT_PREPARE_WRITE_RSP\000"
 3096      455F4741 
 3096      54545F50 
 3096      52455041 
 3096      52455F57 
 3097              	.LASF213:
 3098 0ff6 4359424C 		.ascii	"CYBLE_HRS_CPT\000"
 3098      455F4852 
 3098      535F4350 
 3098      5400
 3099              	.LASF167:
 3100 1004 4359424C 		.ascii	"CYBLE_GATT_ERR_ATTRIBUTE_NOT_FOUND\000"
 3100      455F4741 
 3100      54545F45 
 3100      52525F41 
 3100      54545249 
 3101              	.LASF69:
 3102 1027 4359424C 		.ascii	"CYBLE_EVT_MAX\000"
 3102      455F4556 
 3102      545F4D41 
ARM GAS  C:\Users\mliha\AppData\Local\Temp\cc428Uxc.s 			page 89


 3102      5800
 3103              	.LASF33:
 3104 1035 4359424C 		.ascii	"CYBLE_EVT_GAPC_SCAN_START_STOP\000"
 3104      455F4556 
 3104      545F4741 
 3104      50435F53 
 3104      43414E5F 
 3105              	.LASF251:
 3106 1054 4379426C 		.ascii	"CyBle_IsDeviceAddressValid\000"
 3106      655F4973 
 3106      44657669 
 3106      63654164 
 3106      64726573 
 3107              	.LASF117:
 3108 106f 4359424C 		.ascii	"CYBLE_GAP_AUTH_FAILED_REASON_T\000"
 3108      455F4741 
 3108      505F4155 
 3108      54485F46 
 3108      41494C45 
 3109              	.LASF47:
 3110 108e 4359424C 		.ascii	"CYBLE_EVT_GATTS_WRITE_REQ\000"
 3110      455F4556 
 3110      545F4741 
 3110      5454535F 
 3110      57524954 
 3111              	.LASF71:
 3112 10a8 4359424C 		.ascii	"CYBLE_LL_PWR_LVL_NEG_12_DBM\000"
 3112      455F4C4C 
 3112      5F505752 
 3112      5F4C564C 
 3112      5F4E4547 
 3113              	.LASF25:
 3114 10c4 4359424C 		.ascii	"CYBLE_EVT_GAP_PASSKEY_DISPLAY_REQUEST\000"
 3114      455F4556 
 3114      545F4741 
 3114      505F5041 
 3114      53534B45 
 3115              	.LASF141:
 3116 10ea 4359424C 		.ascii	"CYBLE_GATT_READ_MULTIPLE_REQ\000"
 3116      455F4741 
 3116      54545F52 
 3116      4541445F 
 3116      4D554C54 
 3117              	.LASF44:
 3118 1107 4359424C 		.ascii	"CYBLE_EVT_GATTC_READ_RSP\000"
 3118      455F4556 
 3118      545F4741 
 3118      5454435F 
 3118      52454144 
 3119              	.LASF164:
 3120 1120 4359424C 		.ascii	"CYBLE_GATT_ERR_INVALID_OFFSET\000"
 3120      455F4741 
 3120      54545F45 
 3120      52525F49 
 3120      4E56414C 
 3121              	.LASF135:
 3122 113e 4359424C 		.ascii	"CYBLE_GATT_READ_BY_TYPE_REQ\000"
ARM GAS  C:\Users\mliha\AppData\Local\Temp\cc428Uxc.s 			page 90


 3122      455F4741 
 3122      54545F52 
 3122      4541445F 
 3122      42595F54 
 3123              	.LASF61:
 3124 115a 4359424C 		.ascii	"CYBLE_EVT_L2CAP_CBFC_CONN_CNF\000"
 3124      455F4556 
 3124      545F4C32 
 3124      4341505F 
 3124      43424643 
 3125              	.LASF182:
 3126 1178 4359424C 		.ascii	"CYBLE_GATT_ERR_OUT_OF_RANGE\000"
 3126      455F4741 
 3126      54545F45 
 3126      52525F4F 
 3126      55545F4F 
 3127              	.LASF133:
 3128 1194 4359424C 		.ascii	"CYBLE_GATT_FIND_BY_TYPE_VALUE_REQ\000"
 3128      455F4741 
 3128      54545F46 
 3128      494E445F 
 3128      42595F54 
 3129              	.LASF72:
 3130 11b6 4359424C 		.ascii	"CYBLE_LL_PWR_LVL_NEG_6_DBM\000"
 3130      455F4C4C 
 3130      5F505752 
 3130      5F4C564C 
 3130      5F4E4547 
 3131              	.LASF104:
 3132 11d1 4359424C 		.ascii	"CYBLE_GAP_AUTH_ERROR_NONE\000"
 3132      455F4741 
 3132      505F4155 
 3132      54485F45 
 3132      52524F52 
 3133              	.LASF31:
 3134 11eb 4359424C 		.ascii	"CYBLE_EVT_GAP_ENCRYPT_CHANGE\000"
 3134      455F4556 
 3134      545F4741 
 3134      505F454E 
 3134      43525950 
 3135              	.LASF38:
 3136 1208 4359424C 		.ascii	"CYBLE_EVT_GATTS_XCNHG_MTU_REQ\000"
 3136      455F4556 
 3136      545F4741 
 3136      5454535F 
 3136      58434E48 
 3137              	.LASF211:
 3138 1226 4359424C 		.ascii	"CYBLE_HRS_HRM\000"
 3138      455F4852 
 3138      535F4852 
 3138      4D00
 3139              	.LASF132:
 3140 1234 4359424C 		.ascii	"CYBLE_GATT_FIND_INFO_RSP\000"
 3140      455F4741 
 3140      54545F46 
 3140      494E445F 
 3140      494E464F 
ARM GAS  C:\Users\mliha\AppData\Local\Temp\cc428Uxc.s 			page 91


 3141              	.LASF106:
 3142 124d 4359424C 		.ascii	"CYBLE_GAP_AUTH_ERROR_OOB_DATA_NOT_AVAILABLE\000"
 3142      455F4741 
 3142      505F4155 
 3142      54485F45 
 3142      52524F52 
 3143              	.LASF201:
 3144 1279 4359424C 		.ascii	"CYBLE_DIS_MANUFACTURER_NAME\000"
 3144      455F4449 
 3144      535F4D41 
 3144      4E554641 
 3144      43545552 
 3145              	.LASF127:
 3146 1295 4359424C 		.ascii	"CYBLE_GAP_CONN_PARAM_UPDATED_IN_CONTROLLER_T\000"
 3146      455F4741 
 3146      505F434F 
 3146      4E4E5F50 
 3146      4152414D 
 3147              	.LASF7:
 3148 12c2 6C6F6E67 		.ascii	"long long unsigned int\000"
 3148      206C6F6E 
 3148      6720756E 
 3148      7369676E 
 3148      65642069 
 3149              	.LASF158:
 3150 12d9 4359424C 		.ascii	"CYBLE_GATT_ERR_INVALID_HANDLE\000"
 3150      455F4741 
 3150      54545F45 
 3150      52525F49 
 3150      4E56414C 
 3151              	.LASF18:
 3152 12f7 4359424C 		.ascii	"CYBLE_EVT_TIMEOUT\000"
 3152      455F4556 
 3152      545F5449 
 3152      4D454F55 
 3152      5400
 3153              	.LASF230:
 3154 1309 73666C61 		.ascii	"sflashAddressValid\000"
 3154      73684164 
 3154      64726573 
 3154      7356616C 
 3154      696400
 3155              	.LASF156:
 3156 131c 4359424C 		.ascii	"CYBLE_GATT_UNKNOWN_PDU_IND\000"
 3156      455F4741 
 3156      54545F55 
 3156      4E4B4E4F 
 3156      574E5F50 
 3157              	.LASF184:
 3158 1337 4359424C 		.ascii	"CYBLE_GATT_DB_ATTR_HANDLE_T\000"
 3158      455F4741 
 3158      54545F44 
 3158      425F4154 
 3158      54525F48 
 3159              	.LASF235:
 3160 1353 626C6553 		.ascii	"bleSsPowerLevel\000"
 3160      73506F77 
ARM GAS  C:\Users\mliha\AppData\Local\Temp\cc428Uxc.s 			page 92


 3160      65724C65 
 3160      76656C00 
 3161              	.LASF64:
 3162 1363 4359424C 		.ascii	"CYBLE_EVT_L2CAP_CBFC_DATA_READ\000"
 3162      455F4556 
 3162      545F4C32 
 3162      4341505F 
 3162      43424643 
 3163              	.LASF157:
 3164 1382 4359424C 		.ascii	"CYBLE_GATT_ERR_NONE\000"
 3164      455F4741 
 3164      54545F45 
 3164      52525F4E 
 3164      4F4E4500 
 3165              	.LASF190:
 3166 1396 76616C75 		.ascii	"value\000"
 3166      6500
 3167              	.LASF183:
 3168 139c 4359424C 		.ascii	"CYBLE_GATT_ERR_CODE_T\000"
 3168      455F4741 
 3168      54545F45 
 3168      52525F43 
 3168      4F44455F 
 3169              	.LASF91:
 3170 13b2 4359424C 		.ascii	"CYBLE_GAP_SCAN_TO\000"
 3170      455F4741 
 3170      505F5343 
 3170      414E5F54 
 3170      4F00
 3171              	.LASF89:
 3172 13c4 4359424C 		.ascii	"CYBLE_GAP_BD_ADDR_T\000"
 3172      455F4741 
 3172      505F4244 
 3172      5F414444 
 3172      525F5400 
 3173              	.LASF139:
 3174 13d8 4359424C 		.ascii	"CYBLE_GATT_READ_BLOB_REQ\000"
 3174      455F4741 
 3174      54545F52 
 3174      4541445F 
 3174      424C4F42 
 3175              	.LASF90:
 3176 13f1 4359424C 		.ascii	"CYBLE_GAP_ADV_MODE_TO\000"
 3176      455F4741 
 3176      505F4144 
 3176      565F4D4F 
 3176      44455F54 
 3177              	.LASF198:
 3178 1407 68616E64 		.ascii	"handleValPair\000"
 3178      6C655661 
 3178      6C506169 
 3178      7200
 3179              	.LASF193:
 3180 1415 636F6E6E 		.ascii	"connHandle\000"
 3180      48616E64 
 3180      6C6500
 3181              	.LASF226:
ARM GAS  C:\Users\mliha\AppData\Local\Temp\cc428Uxc.s 			page 93


 3182 1420 4379426C 		.ascii	"CyBle_TimeOutEventHandler\000"
 3182      655F5469 
 3182      6D654F75 
 3182      74457665 
 3182      6E744861 
 3183              	.LASF109:
 3184 143a 4359424C 		.ascii	"CYBLE_GAP_AUTH_ERROR_PAIRING_NOT_SUPPORTED\000"
 3184      455F4741 
 3184      505F4155 
 3184      54485F45 
 3184      52524F52 
 3185              	.LASF93:
 3186 1465 4359424C 		.ascii	"CYBLE_GENERIC_TO\000"
 3186      455F4745 
 3186      4E455249 
 3186      435F544F 
 3186      00
 3187              	.LASF42:
 3188 1476 4359424C 		.ascii	"CYBLE_EVT_GATTC_FIND_INFO_RSP\000"
 3188      455F4556 
 3188      545F4741 
 3188      5454435F 
 3188      46494E44 
 3189              	.LASF41:
 3190 1494 4359424C 		.ascii	"CYBLE_EVT_GATTC_READ_BY_TYPE_RSP\000"
 3190      455F4556 
 3190      545F4741 
 3190      5454435F 
 3190      52454144 
 3191              	.LASF244:
 3192 14b5 6379426C 		.ascii	"cyBle_state\000"
 3192      655F7374 
 3192      61746500 
 3193              	.LASF48:
 3194 14c1 4359424C 		.ascii	"CYBLE_EVT_GATTC_WRITE_RSP\000"
 3194      455F4556 
 3194      545F4741 
 3194      5454435F 
 3194      57524954 
 3195              	.LASF219:
 3196 14db 4359424C 		.ascii	"CYBLE_STATE_DISCONNECTED\000"
 3196      455F5354 
 3196      4154455F 
 3196      44495343 
 3196      4F4E4E45 
 3197              	.LASF28:
 3198 14f4 4359424C 		.ascii	"CYBLE_EVT_GAPP_ADVERTISEMENT_START_STOP\000"
 3198      455F4556 
 3198      545F4741 
 3198      50505F41 
 3198      44564552 
 3199              	.LASF9:
 3200 151c 75696E74 		.ascii	"uint8\000"
 3200      3800
 3201              	.LASF241:
 3202 1522 6379426C 		.ascii	"cyBle_authInfo\000"
 3202      655F6175 
ARM GAS  C:\Users\mliha\AppData\Local\Temp\cc428Uxc.s 			page 94


 3202      7468496E 
 3202      666F00
 3203              	.LASF118:
 3204 1531 73656375 		.ascii	"security\000"
 3204      72697479 
 3204      00
 3205              	.LASF231:
 3206 153a 4379426C 		.ascii	"CyBle_L2Cap_ConnParamUpdateRspEventHandler\000"
 3206      655F4C32 
 3206      4361705F 
 3206      436F6E6E 
 3206      50617261 
 3207              	.LASF145:
 3208 1565 4359424C 		.ascii	"CYBLE_GATT_WRITE_REQ\000"
 3208      455F4741 
 3208      54545F57 
 3208      52495445 
 3208      5F524551 
 3209              	.LASF2:
 3210 157a 73686F72 		.ascii	"short int\000"
 3210      7420696E 
 3210      7400
 3211              	.LASF121:
 3212 1584 61757468 		.ascii	"authErr\000"
 3212      45727200 
 3213              	.LASF176:
 3214 158c 4359424C 		.ascii	"CYBLE_GATT_ERR_CPS_INAPPROPRIATE_CONNECTION_PARAMET"
 3214      455F4741 
 3214      54545F45 
 3214      52525F43 
 3214      50535F49 
 3215 15bf 45525300 		.ascii	"ERS\000"
 3216              	.LASF214:
 3217 15c3 4359424C 		.ascii	"CYBLE_HRS_CHAR_COUNT\000"
 3217      455F4852 
 3217      535F4348 
 3217      41525F43 
 3217      4F554E54 
 3218              	.LASF163:
 3219 15d8 4359424C 		.ascii	"CYBLE_GATT_ERR_REQUEST_NOT_SUPPORTED\000"
 3219      455F4741 
 3219      54545F45 
 3219      52525F52 
 3219      45515545 
 3220              	.LASF35:
 3221 15fd 4359424C 		.ascii	"CYBLE_EVT_GATTC_ERROR_RSP\000"
 3221      455F4556 
 3221      545F4741 
 3221      5454435F 
 3221      4552524F 
 3222              	.LASF103:
 3223 1617 4359424C 		.ascii	"CYBLE_GAP_IOCAP_KEYBOARD_DISPLAY\000"
 3223      455F4741 
 3223      505F494F 
 3223      4341505F 
 3223      4B455942 
 3224              	.LASF220:
ARM GAS  C:\Users\mliha\AppData\Local\Temp\cc428Uxc.s 			page 95


 3225 1638 4359424C 		.ascii	"CYBLE_STATE_T\000"
 3225      455F5354 
 3225      4154455F 
 3225      5400
 3226              	.LASF60:
 3227 1646 4359424C 		.ascii	"CYBLE_EVT_L2CAP_CBFC_CONN_IND\000"
 3227      455F4556 
 3227      545F4C32 
 3227      4341505F 
 3227      43424643 
 3228              	.LASF51:
 3229 1664 4359424C 		.ascii	"CYBLE_EVT_GATTS_EXEC_WRITE_REQ\000"
 3229      455F4556 
 3229      545F4741 
 3229      5454535F 
 3229      45584543 
 3230              	.LASF22:
 3231 1683 4359424C 		.ascii	"CYBLE_EVT_GAPC_SCAN_PROGRESS_RESULT\000"
 3231      455F4556 
 3231      545F4741 
 3231      50435F53 
 3231      43414E5F 
 3232              	.LASF247:
 3233 16a7 6379426C 		.ascii	"cyBle_advertisingIntervalType\000"
 3233      655F6164 
 3233      76657274 
 3233      6973696E 
 3233      67496E74 
 3234              	.LASF87:
 3235 16c5 62644164 		.ascii	"bdAddr\000"
 3235      647200
 3236              	.LASF179:
 3237 16cc 4359424C 		.ascii	"CYBLE_GATT_ERR_ANS_COMMAND_NOT_SUPPORTED\000"
 3237      455F4741 
 3237      54545F45 
 3237      52525F41 
 3237      4E535F43 
 3238              	.LASF232:
 3239 16f5 72657370 		.ascii	"response\000"
 3239      6F6E7365 
 3239      00
 3240              	.LASF138:
 3241 16fe 4359424C 		.ascii	"CYBLE_GATT_READ_RSP\000"
 3241      455F4741 
 3241      54545F52 
 3241      4541445F 
 3241      52535000 
 3242              	.LASF77:
 3243 1712 4359424C 		.ascii	"CYBLE_LL_PWR_LVL_0_DBM\000"
 3243      455F4C4C 
 3243      5F505752 
 3243      5F4C564C 
 3243      5F305F44 
 3244              	.LASF80:
 3245 1729 4359424C 		.ascii	"CYBLE_LL_ADV_CH_TYPE\000"
 3245      455F4C4C 
 3245      5F414456 
ARM GAS  C:\Users\mliha\AppData\Local\Temp\cc428Uxc.s 			page 96


 3245      5F43485F 
 3245      54595045 
 3246              	.LASF242:
 3247 173e 6379426C 		.ascii	"cyBle_attValuesCCCD\000"
 3247      655F6174 
 3247      7456616C 
 3247      75657343 
 3247      43434400 
 3248              	.LASF54:
 3249 1752 4359424C 		.ascii	"CYBLE_EVT_GATTC_HANDLE_VALUE_IND\000"
 3249      455F4556 
 3249      545F4741 
 3249      5454435F 
 3249      48414E44 
 3250              	.LASF234:
 3251 1773 6576656E 		.ascii	"eventCode\000"
 3251      74436F64 
 3251      6500
 3252              	.LASF21:
 3253 177d 4359424C 		.ascii	"CYBLE_EVT_STACK_BUSY_STATUS\000"
 3253      455F4556 
 3253      545F5354 
 3253      41434B5F 
 3253      42555359 
 3254              	.LASF125:
 3255 1799 636F6E6E 		.ascii	"connLatency\000"
 3255      4C617465 
 3255      6E637900 
 3256              	.LASF100:
 3257 17a5 4359424C 		.ascii	"CYBLE_GAP_IOCAP_DISPLAY_YESNO\000"
 3257      455F4741 
 3257      505F494F 
 3257      4341505F 
 3257      44495350 
 3258              	.LASF34:
 3259 17c3 4359424C 		.ascii	"CYBLE_EVT_GAP_KEYINFO_EXCHNGE_CMPLT\000"
 3259      455F4556 
 3259      545F4741 
 3259      505F4B45 
 3259      59494E46 
 3260              	.LASF150:
 3261 17e7 4359424C 		.ascii	"CYBLE_GATT_EXECUTE_WRITE_REQ\000"
 3261      455F4741 
 3261      54545F45 
 3261      58454355 
 3261      54455F57 
 3262              	.LASF86:
 3263 1804 4359424C 		.ascii	"CYBLE_BLESS_PWR_IN_DB_T\000"
 3263      455F424C 
 3263      4553535F 
 3263      5057525F 
 3263      494E5F44 
 3264              	.LASF82:
 3265 181c 4359424C 		.ascii	"CYBLE_LL_MAX_CH_TYPE\000"
 3265      455F4C4C 
 3265      5F4D4158 
 3265      5F43485F 
ARM GAS  C:\Users\mliha\AppData\Local\Temp\cc428Uxc.s 			page 97


 3265      54595045 
 3266              	.LASF57:
 3267 1831 4359424C 		.ascii	"CYBLE_EVT_L2CAP_CONN_PARAM_UPDATE_REQ\000"
 3267      455F4556 
 3267      545F4C32 
 3267      4341505F 
 3267      434F4E4E 
 3268              	.LASF221:
 3269 1857 67617474 		.ascii	"gattErr\000"
 3269      45727200 
 3270              	.LASF160:
 3271 185f 4359424C 		.ascii	"CYBLE_GATT_ERR_WRITE_NOT_PERMITTED\000"
 3271      455F4741 
 3271      54545F45 
 3271      52525F57 
 3271      52495445 
 3272              	.LASF246:
 3273 1882 6379426C 		.ascii	"cyBle_busStatus\000"
 3273      655F6275 
 3273      73537461 
 3273      74757300 
 3274              	.LASF124:
 3275 1892 636F6E6E 		.ascii	"connIntv\000"
 3275      496E7476 
 3275      00
 3276              	.LASF3:
 3277 189b 73686F72 		.ascii	"short unsigned int\000"
 3277      7420756E 
 3277      7369676E 
 3277      65642069 
 3277      6E7400
 3278              	.LASF172:
 3279 18ae 4359424C 		.ascii	"CYBLE_GATT_ERR_INSUFFICIENT_ENCRYPTION\000"
 3279      455F4741 
 3279      54545F45 
 3279      52525F49 
 3279      4E535546 
 3280              	.LASF217:
 3281 18d5 4359424C 		.ascii	"CYBLE_STATE_CONNECTED\000"
 3281      455F5354 
 3281      4154455F 
 3281      434F4E4E 
 3281      45435445 
 3282              	.LASF188:
 3283 18eb 61637475 		.ascii	"actualLen\000"
 3283      616C4C65 
 3283      6E00
 3284              	.LASF143:
 3285 18f5 4359424C 		.ascii	"CYBLE_GATT_READ_BY_GROUP_REQ\000"
 3285      455F4741 
 3285      54545F52 
 3285      4541445F 
 3285      42595F47 
 3286              	.LASF186:
 3287 1912 61747449 		.ascii	"attId\000"
 3287      6400
 3288              	.LASF20:
ARM GAS  C:\Users\mliha\AppData\Local\Temp\cc428Uxc.s 			page 98


 3289 1918 4359424C 		.ascii	"CYBLE_EVT_HCI_STATUS\000"
 3289      455F4556 
 3289      545F4843 
 3289      495F5354 
 3289      41545553 
 3290              	.LASF37:
 3291 192d 4359424C 		.ascii	"CYBLE_EVT_GATT_DISCONNECT_IND\000"
 3291      455F4556 
 3291      545F4741 
 3291      54545F44 
 3291      4953434F 
 3292              	.LASF126:
 3293 194b 73757065 		.ascii	"supervisionTO\000"
 3293      72766973 
 3293      696F6E54 
 3293      4F00
 3294              	.LASF92:
 3295 1959 4359424C 		.ascii	"CYBLE_GATT_RSP_TO\000"
 3295      455F4741 
 3295      54545F52 
 3295      53505F54 
 3295      4F00
 3296              	.LASF67:
 3297 196b 4359424C 		.ascii	"CYBLE_EVT_L2CAP_CBFC_DATA_WRITE_IND\000"
 3297      455F4556 
 3297      545F4C32 
 3297      4341505F 
 3297      43424643 
 3298              	.LASF30:
 3299 198f 4359424C 		.ascii	"CYBLE_EVT_GAP_DEVICE_DISCONNECTED\000"
 3299      455F4556 
 3299      545F4741 
 3299      505F4445 
 3299      56494345 
 3300              	.LASF55:
 3301 19b1 4359424C 		.ascii	"CYBLE_EVT_GATTS_HANDLE_VALUE_CNF\000"
 3301      455F4556 
 3301      545F4741 
 3301      5454535F 
 3301      48414E44 
 3302              	.LASF10:
 3303 19d2 75696E74 		.ascii	"uint16\000"
 3303      313600
 3304              		.ident	"GCC: (GNU Tools for ARM Embedded Processors) 4.8.4 20140526 (release) [ARM/embedded-4_8-br
