ARM GAS  C:\Users\mliha\AppData\Local\Temp\cc428Uxc.s 			page 1


   1              		.cpu cortex-m0
   2              		.fpu softvfp
   3              		.eabi_attribute 20, 1
   4              		.eabi_attribute 21, 1
   5              		.eabi_attribute 23, 3
   6              		.eabi_attribute 24, 1
   7              		.eabi_attribute 25, 1
   8              		.eabi_attribute 26, 1
   9              		.eabi_attribute 30, 6
  10              		.eabi_attribute 34, 0
  11              		.eabi_attribute 18, 4
  12              		.code	16
  13              		.file	"BLE_1_eventHandler.c"
  14              		.text
  15              	.Ltext0:
  16              		.cfi_sections	.debug_frame
  17              		.comm	cyBle_eventHandlerFlag,1,1
  18              		.comm	cyBle_connHandle,2,4
  19              		.comm	cyBle_busStatus,1,1
  20              		.comm	cyBle_advertisingIntervalType,1,1
  21              		.global	cyBle_authInfo
  22              		.data
  23              		.align	2
  24              		.type	cyBle_authInfo, %object
  25              		.size	cyBle_authInfo, 4
  26              	cyBle_authInfo:
  27 0000 10       		.byte	16
  28 0001 00       		.byte	0
  29 0002 10       		.byte	16
  30 0003 00       		.byte	0
  31              		.section	.text.CyBle_WriteReqHandler,"ax",%progbits
  32              		.align	2
  33              		.code	16
  34              		.thumb_func
  35              		.type	CyBle_WriteReqHandler, %function
  36              	CyBle_WriteReqHandler:
  37              	.LFB2:
  38              		.file 1 ".\\Generated_Source\\PSoC4\\BLE_1_eventHandler.c"
   1:.\Generated_Source\PSoC4/BLE_1_eventHandler.c **** /*******************************************************************************
   2:.\Generated_Source\PSoC4/BLE_1_eventHandler.c **** File Name: CYBLE_eventHandler.c
   3:.\Generated_Source\PSoC4/BLE_1_eventHandler.c **** Version 1.10
   4:.\Generated_Source\PSoC4/BLE_1_eventHandler.c **** 
   5:.\Generated_Source\PSoC4/BLE_1_eventHandler.c **** Description:
   6:.\Generated_Source\PSoC4/BLE_1_eventHandler.c ****  This file contains the source code for the Event Handler State Machine
   7:.\Generated_Source\PSoC4/BLE_1_eventHandler.c ****  of the BLE Component.
   8:.\Generated_Source\PSoC4/BLE_1_eventHandler.c **** 
   9:.\Generated_Source\PSoC4/BLE_1_eventHandler.c **** ********************************************************************************
  10:.\Generated_Source\PSoC4/BLE_1_eventHandler.c **** Copyright 2014, Cypress Semiconductor Corporation.  All rights reserved.
  11:.\Generated_Source\PSoC4/BLE_1_eventHandler.c **** You may use this file only in accordance with the license, terms, conditions,
  12:.\Generated_Source\PSoC4/BLE_1_eventHandler.c **** disclaimers, and limitations in the end user license agreement accompanying
  13:.\Generated_Source\PSoC4/BLE_1_eventHandler.c **** the software package with which this file was provided.
  14:.\Generated_Source\PSoC4/BLE_1_eventHandler.c **** *******************************************************************************/
  15:.\Generated_Source\PSoC4/BLE_1_eventHandler.c **** 
  16:.\Generated_Source\PSoC4/BLE_1_eventHandler.c **** #include "BLE_1_eventHandler.h"
  17:.\Generated_Source\PSoC4/BLE_1_eventHandler.c **** 
  18:.\Generated_Source\PSoC4/BLE_1_eventHandler.c **** 
  19:.\Generated_Source\PSoC4/BLE_1_eventHandler.c **** /***************************************
ARM GAS  C:\Users\mliha\AppData\Local\Temp\cc428Uxc.s 			page 2


  20:.\Generated_Source\PSoC4/BLE_1_eventHandler.c **** ##Private Function Prototypes
  21:.\Generated_Source\PSoC4/BLE_1_eventHandler.c **** ***************************************/
  22:.\Generated_Source\PSoC4/BLE_1_eventHandler.c **** 
  23:.\Generated_Source\PSoC4/BLE_1_eventHandler.c **** #if (CYBLE_GATT_ROLE_SERVER || CYBLE_GATT_ROLE_CLIENT)
  24:.\Generated_Source\PSoC4/BLE_1_eventHandler.c **** 
  25:.\Generated_Source\PSoC4/BLE_1_eventHandler.c **** static uint8 CyBle_IsDeviceAddressValid(const CYBLE_GAP_BD_ADDR_T *sflashDeviceAddress);
  26:.\Generated_Source\PSoC4/BLE_1_eventHandler.c **** 
  27:.\Generated_Source\PSoC4/BLE_1_eventHandler.c **** #endif /* (CYBLE_GATT_ROLE_SERVER || CYBLE_GATT_ROLE_CLIENT) */
  28:.\Generated_Source\PSoC4/BLE_1_eventHandler.c **** 
  29:.\Generated_Source\PSoC4/BLE_1_eventHandler.c **** static void CyBle_GattDisconnectEventHandler(void);
  30:.\Generated_Source\PSoC4/BLE_1_eventHandler.c **** static void CyBle_TimeOutEventHandler(const CYBLE_TO_REASON_CODE_T *eventParam);
  31:.\Generated_Source\PSoC4/BLE_1_eventHandler.c **** static void CyBle_GattConnectReqHandler(void);
  32:.\Generated_Source\PSoC4/BLE_1_eventHandler.c **** static void CyBle_L2Cap_ConnParamUpdateRspEventHandler(uint16 response);
  33:.\Generated_Source\PSoC4/BLE_1_eventHandler.c **** static void CyBle_GapConnUpdateCompleteEventHandler(const CYBLE_GAP_CONN_PARAM_UPDATED_IN_CONTROLLE
  34:.\Generated_Source\PSoC4/BLE_1_eventHandler.c **** 
  35:.\Generated_Source\PSoC4/BLE_1_eventHandler.c **** 
  36:.\Generated_Source\PSoC4/BLE_1_eventHandler.c **** #if (CYBLE_GATT_ROLE_SERVER)
  37:.\Generated_Source\PSoC4/BLE_1_eventHandler.c **** 
  38:.\Generated_Source\PSoC4/BLE_1_eventHandler.c **** static void CyBle_WriteReqHandler(CYBLE_GATTS_WRITE_REQ_PARAM_T *eventParam);
  39:.\Generated_Source\PSoC4/BLE_1_eventHandler.c **** static void CyBle_ValueConfirmation(const CYBLE_CONN_HANDLE_T *eventParam);
  40:.\Generated_Source\PSoC4/BLE_1_eventHandler.c **** 
  41:.\Generated_Source\PSoC4/BLE_1_eventHandler.c **** #endif /* (CYBLE_GATT_ROLE_SERVER) */
  42:.\Generated_Source\PSoC4/BLE_1_eventHandler.c **** 
  43:.\Generated_Source\PSoC4/BLE_1_eventHandler.c **** #if (CYBLE_GATT_ROLE_CLIENT)
  44:.\Generated_Source\PSoC4/BLE_1_eventHandler.c **** 
  45:.\Generated_Source\PSoC4/BLE_1_eventHandler.c **** static void CyBle_GapcDiscoverCharacteristicsEventHandler(CYBLE_DISC_CHAR_INFO_T *discCharInfo);
  46:.\Generated_Source\PSoC4/BLE_1_eventHandler.c **** static CYBLE_GATT_ATTR_HANDLE_RANGE_T CyBle_GetCharRange(void);
  47:.\Generated_Source\PSoC4/BLE_1_eventHandler.c **** static void CyBle_GattcWriteResponseEventHandler(const CYBLE_CONN_HANDLE_T *eventParam);
  48:.\Generated_Source\PSoC4/BLE_1_eventHandler.c **** 
  49:.\Generated_Source\PSoC4/BLE_1_eventHandler.c **** #endif /* (CYBLE_GATT_ROLE_CLIENT) */
  50:.\Generated_Source\PSoC4/BLE_1_eventHandler.c **** 
  51:.\Generated_Source\PSoC4/BLE_1_eventHandler.c **** 
  52:.\Generated_Source\PSoC4/BLE_1_eventHandler.c **** /***************************************
  53:.\Generated_Source\PSoC4/BLE_1_eventHandler.c **** ##Global Variables
  54:.\Generated_Source\PSoC4/BLE_1_eventHandler.c **** ***************************************/
  55:.\Generated_Source\PSoC4/BLE_1_eventHandler.c **** 
  56:.\Generated_Source\PSoC4/BLE_1_eventHandler.c **** volatile uint8 cyBle_eventHandlerFlag;
  57:.\Generated_Source\PSoC4/BLE_1_eventHandler.c **** CYBLE_CONN_HANDLE_T cyBle_connHandle;
  58:.\Generated_Source\PSoC4/BLE_1_eventHandler.c **** volatile uint8 cyBle_busStatus;
  59:.\Generated_Source\PSoC4/BLE_1_eventHandler.c **** 
  60:.\Generated_Source\PSoC4/BLE_1_eventHandler.c **** #if(CYBLE_GAP_ROLE_PERIPHERAL || CYBLE_GAP_ROLE_BROADCASTER) 
  61:.\Generated_Source\PSoC4/BLE_1_eventHandler.c ****     uint8 cyBle_advertisingIntervalType;
  62:.\Generated_Source\PSoC4/BLE_1_eventHandler.c **** #endif /* (CYBLE_GAP_ROLE_PERIPHERAL || CYBLE_GAP_ROLE_BROADCASTER) */
  63:.\Generated_Source\PSoC4/BLE_1_eventHandler.c **** 
  64:.\Generated_Source\PSoC4/BLE_1_eventHandler.c **** #if(CYBLE_GAP_ROLE_CENTRAL || CYBLE_GAP_ROLE_OBSERVER) 
  65:.\Generated_Source\PSoC4/BLE_1_eventHandler.c ****     uint8 cyBle_scanningIntervalType;
  66:.\Generated_Source\PSoC4/BLE_1_eventHandler.c **** #endif /* CYBLE_GAP_ROLE_CENTRAL || CYBLE_GAP_ROLE_OBSERVER */
  67:.\Generated_Source\PSoC4/BLE_1_eventHandler.c **** 
  68:.\Generated_Source\PSoC4/BLE_1_eventHandler.c **** #if(CYBLE_GATT_ROLE_CLIENT)
  69:.\Generated_Source\PSoC4/BLE_1_eventHandler.c **** uint8 cyBle_disCount; /* Counter for discovery procedures */
  70:.\Generated_Source\PSoC4/BLE_1_eventHandler.c **** static CYBLE_GATT_DB_ATTR_HANDLE_T cyBle_charEndHandle;
  71:.\Generated_Source\PSoC4/BLE_1_eventHandler.c **** #ifdef CYBLE_HIDS_CLIENT
  72:.\Generated_Source\PSoC4/BLE_1_eventHandler.c ****     static uint8 disServiceIndex;      /* To discovery descriptors for multiple HID service instanc
  73:.\Generated_Source\PSoC4/BLE_1_eventHandler.c **** #endif /* defined(CYBLE_HIDS_CLIENT) */
  74:.\Generated_Source\PSoC4/BLE_1_eventHandler.c **** 
  75:.\Generated_Source\PSoC4/BLE_1_eventHandler.c **** CYBLE_DISC_SRVC_INFO_T cyBle_serverInfo[CYBLE_SRVI_COUNT] = /*4*/
  76:.\Generated_Source\PSoC4/BLE_1_eventHandler.c **** {
ARM GAS  C:\Users\mliha\AppData\Local\Temp\cc428Uxc.s 			page 3


  77:.\Generated_Source\PSoC4/BLE_1_eventHandler.c ****     {{CYBLE_GATT_INVALID_ATTR_HANDLE_VALUE, CYBLE_GATT_INVALID_ATTR_HANDLE_VALUE}, CYBLE_UUID_GAP_S
  78:.\Generated_Source\PSoC4/BLE_1_eventHandler.c ****     {{CYBLE_GATT_INVALID_ATTR_HANDLE_VALUE, CYBLE_GATT_INVALID_ATTR_HANDLE_VALUE}, CYBLE_UUID_GATT_
  79:.\Generated_Source\PSoC4/BLE_1_eventHandler.c **** #ifdef CYBLE_ANS_CLIENT
  80:.\Generated_Source\PSoC4/BLE_1_eventHandler.c ****     {{CYBLE_GATT_INVALID_ATTR_HANDLE_VALUE, CYBLE_GATT_INVALID_ATTR_HANDLE_VALUE}, CYBLE_UUID_ALERT
  81:.\Generated_Source\PSoC4/BLE_1_eventHandler.c **** #endif /* CYBLE_ANS_CLIENT */
  82:.\Generated_Source\PSoC4/BLE_1_eventHandler.c **** #ifdef CYBLE_BAS_CLIENT
  83:.\Generated_Source\PSoC4/BLE_1_eventHandler.c ****     {{CYBLE_GATT_INVALID_ATTR_HANDLE_VALUE, CYBLE_GATT_INVALID_ATTR_HANDLE_VALUE}, CYBLE_UUID_BAS_S
  84:.\Generated_Source\PSoC4/BLE_1_eventHandler.c ****     #if(CYBLE_BASC_SERVICE_COUNT > 1u) /* Generate it by GUI */
  85:.\Generated_Source\PSoC4/BLE_1_eventHandler.c ****         
  86:.\Generated_Source\PSoC4/BLE_1_eventHandler.c ****     #endif /* CYBLE_BASC_SERVICE_COUNT > 1u */
  87:.\Generated_Source\PSoC4/BLE_1_eventHandler.c **** #endif /* CYBLE_BAS_CLIENT */
  88:.\Generated_Source\PSoC4/BLE_1_eventHandler.c **** #ifdef CYBLE_BLS_CLIENT
  89:.\Generated_Source\PSoC4/BLE_1_eventHandler.c ****     {{CYBLE_GATT_INVALID_ATTR_HANDLE_VALUE, CYBLE_GATT_INVALID_ATTR_HANDLE_VALUE}, CYBLE_UUID_BLOOD
  90:.\Generated_Source\PSoC4/BLE_1_eventHandler.c **** #endif /* CYBLE_BLS_CLIENT */
  91:.\Generated_Source\PSoC4/BLE_1_eventHandler.c **** #ifdef CYBLE_CPS_CLIENT
  92:.\Generated_Source\PSoC4/BLE_1_eventHandler.c ****     {{CYBLE_GATT_INVALID_ATTR_HANDLE_VALUE, CYBLE_GATT_INVALID_ATTR_HANDLE_VALUE}, CYBLE_UUID_CPS_S
  93:.\Generated_Source\PSoC4/BLE_1_eventHandler.c **** #endif /* CYBLE_CPS_CLIENT */
  94:.\Generated_Source\PSoC4/BLE_1_eventHandler.c **** #ifdef CYBLE_CSCS_CLIENT
  95:.\Generated_Source\PSoC4/BLE_1_eventHandler.c ****     {{CYBLE_GATT_INVALID_ATTR_HANDLE_VALUE, CYBLE_GATT_INVALID_ATTR_HANDLE_VALUE}, CYBLE_UUID_CYCLI
  96:.\Generated_Source\PSoC4/BLE_1_eventHandler.c **** #endif /* CYBLE_CSCS_CLIENT */
  97:.\Generated_Source\PSoC4/BLE_1_eventHandler.c **** #ifdef CYBLE_CTS_CLIENT
  98:.\Generated_Source\PSoC4/BLE_1_eventHandler.c ****     {{CYBLE_GATT_INVALID_ATTR_HANDLE_VALUE, CYBLE_GATT_INVALID_ATTR_HANDLE_VALUE}, CYBLE_UUID_CURRE
  99:.\Generated_Source\PSoC4/BLE_1_eventHandler.c **** #endif /* CYBLE_CTS_CLIENT */
 100:.\Generated_Source\PSoC4/BLE_1_eventHandler.c **** #ifdef CYBLE_DIS_CLIENT
 101:.\Generated_Source\PSoC4/BLE_1_eventHandler.c ****     {{CYBLE_GATT_INVALID_ATTR_HANDLE_VALUE, CYBLE_GATT_INVALID_ATTR_HANDLE_VALUE}, CYBLE_UUID_DEVIC
 102:.\Generated_Source\PSoC4/BLE_1_eventHandler.c **** #endif /* CYBLE_DIS_CLIENT */
 103:.\Generated_Source\PSoC4/BLE_1_eventHandler.c **** #ifdef CYBLE_GLS_CLIENT
 104:.\Generated_Source\PSoC4/BLE_1_eventHandler.c ****     {{CYBLE_GATT_INVALID_ATTR_HANDLE_VALUE, CYBLE_GATT_INVALID_ATTR_HANDLE_VALUE}, CYBLE_UUID_GLUCO
 105:.\Generated_Source\PSoC4/BLE_1_eventHandler.c **** #endif /* CYBLE_GLS_CLIENT */
 106:.\Generated_Source\PSoC4/BLE_1_eventHandler.c **** #ifdef CYBLE_HIDS_CLIENT
 107:.\Generated_Source\PSoC4/BLE_1_eventHandler.c ****     {{CYBLE_GATT_INVALID_ATTR_HANDLE_VALUE, CYBLE_GATT_INVALID_ATTR_HANDLE_VALUE}, CYBLE_UUID_HIDS_
 108:.\Generated_Source\PSoC4/BLE_1_eventHandler.c ****     #if(CYBLE_HIDSC_SERVICE_COUNT > 1u) /* Generate it by GUI */
 109:.\Generated_Source\PSoC4/BLE_1_eventHandler.c ****         
 110:.\Generated_Source\PSoC4/BLE_1_eventHandler.c ****     #endif /* CYBLE_HIDSC_SERVICE_COUNT > 1u */
 111:.\Generated_Source\PSoC4/BLE_1_eventHandler.c **** #endif /* CYBLE_HIDS_CLIENT */
 112:.\Generated_Source\PSoC4/BLE_1_eventHandler.c **** #ifdef CYBLE_HRS_CLIENT
 113:.\Generated_Source\PSoC4/BLE_1_eventHandler.c ****     {{CYBLE_GATT_INVALID_ATTR_HANDLE_VALUE, CYBLE_GATT_INVALID_ATTR_HANDLE_VALUE}, CYBLE_UUID_HEART
 114:.\Generated_Source\PSoC4/BLE_1_eventHandler.c **** #endif /* CYBLE_HRS_CLIENT */
 115:.\Generated_Source\PSoC4/BLE_1_eventHandler.c **** #ifdef CYBLE_HTS_CLIENT
 116:.\Generated_Source\PSoC4/BLE_1_eventHandler.c ****     {{CYBLE_GATT_INVALID_ATTR_HANDLE_VALUE, CYBLE_GATT_INVALID_ATTR_HANDLE_VALUE}, CYBLE_UUID_HEALT
 117:.\Generated_Source\PSoC4/BLE_1_eventHandler.c **** #endif /* CYBLE_HTS_CLIENT */
 118:.\Generated_Source\PSoC4/BLE_1_eventHandler.c **** #ifdef CYBLE_IAS_CLIENT
 119:.\Generated_Source\PSoC4/BLE_1_eventHandler.c ****     {{CYBLE_GATT_INVALID_ATTR_HANDLE_VALUE, CYBLE_GATT_INVALID_ATTR_HANDLE_VALUE}, CYBLE_UUID_IMMED
 120:.\Generated_Source\PSoC4/BLE_1_eventHandler.c **** #endif /* CYBLE_IAS_CLIENT */
 121:.\Generated_Source\PSoC4/BLE_1_eventHandler.c **** #ifdef CYBLE_LLS_CLIENT
 122:.\Generated_Source\PSoC4/BLE_1_eventHandler.c ****     {{CYBLE_GATT_INVALID_ATTR_HANDLE_VALUE, CYBLE_GATT_INVALID_ATTR_HANDLE_VALUE}, CYBLE_UUID_LINK_
 123:.\Generated_Source\PSoC4/BLE_1_eventHandler.c **** #endif /* CYBLE_LLS_CLIENT */
 124:.\Generated_Source\PSoC4/BLE_1_eventHandler.c **** #ifdef CYBLE_LNS_CLIENT
 125:.\Generated_Source\PSoC4/BLE_1_eventHandler.c ****     {{CYBLE_GATT_INVALID_ATTR_HANDLE_VALUE, CYBLE_GATT_INVALID_ATTR_HANDLE_VALUE}, CYBLE_UUID_LOCAT
 126:.\Generated_Source\PSoC4/BLE_1_eventHandler.c **** #endif /* CYBLE_LNS_CLIENT */
 127:.\Generated_Source\PSoC4/BLE_1_eventHandler.c **** #ifdef CYBLE_NDCS_CLIENT
 128:.\Generated_Source\PSoC4/BLE_1_eventHandler.c ****     {{CYBLE_GATT_INVALID_ATTR_HANDLE_VALUE, CYBLE_GATT_INVALID_ATTR_HANDLE_VALUE}, CYBLE_UUID_NEXT_
 129:.\Generated_Source\PSoC4/BLE_1_eventHandler.c **** #endif /* CYBLE_NDCS_CLIENT */
 130:.\Generated_Source\PSoC4/BLE_1_eventHandler.c **** #ifdef CYBLE_PASS_CLIENT
 131:.\Generated_Source\PSoC4/BLE_1_eventHandler.c ****     {{CYBLE_GATT_INVALID_ATTR_HANDLE_VALUE, CYBLE_GATT_INVALID_ATTR_HANDLE_VALUE}, CYBLE_UUID_PHONE
 132:.\Generated_Source\PSoC4/BLE_1_eventHandler.c **** #endif /* CYBLE_PASS_CLIENT */
 133:.\Generated_Source\PSoC4/BLE_1_eventHandler.c **** #ifdef CYBLE_RSCS_CLIENT
ARM GAS  C:\Users\mliha\AppData\Local\Temp\cc428Uxc.s 			page 4


 134:.\Generated_Source\PSoC4/BLE_1_eventHandler.c ****     {{CYBLE_GATT_INVALID_ATTR_HANDLE_VALUE, CYBLE_GATT_INVALID_ATTR_HANDLE_VALUE}, CYBLE_UUID_RUNNI
 135:.\Generated_Source\PSoC4/BLE_1_eventHandler.c **** #endif /* CYBLE_RSCS_CLIENT */
 136:.\Generated_Source\PSoC4/BLE_1_eventHandler.c **** #ifdef CYBLE_RTUS_CLIENT
 137:.\Generated_Source\PSoC4/BLE_1_eventHandler.c ****     {{CYBLE_GATT_INVALID_ATTR_HANDLE_VALUE, CYBLE_GATT_INVALID_ATTR_HANDLE_VALUE}, CYBLE_UUID_REF_T
 138:.\Generated_Source\PSoC4/BLE_1_eventHandler.c **** #endif /* CYBLE_RTUS_CLIENT */
 139:.\Generated_Source\PSoC4/BLE_1_eventHandler.c **** #ifdef CYBLE_SCPS_CLIENT
 140:.\Generated_Source\PSoC4/BLE_1_eventHandler.c ****     {{CYBLE_GATT_INVALID_ATTR_HANDLE_VALUE, CYBLE_GATT_INVALID_ATTR_HANDLE_VALUE}, CYBLE_UUID_SCAN_
 141:.\Generated_Source\PSoC4/BLE_1_eventHandler.c **** #endif /* CYBLE_SCPS_CLIENT */
 142:.\Generated_Source\PSoC4/BLE_1_eventHandler.c **** #ifdef CYBLE_TPS_CLIENT
 143:.\Generated_Source\PSoC4/BLE_1_eventHandler.c ****     {{CYBLE_GATT_INVALID_ATTR_HANDLE_VALUE, CYBLE_GATT_INVALID_ATTR_HANDLE_VALUE}, CYBLE_UUID_TX_PO
 144:.\Generated_Source\PSoC4/BLE_1_eventHandler.c **** #endif /* CYBLE_TPS_CLIENT */
 145:.\Generated_Source\PSoC4/BLE_1_eventHandler.c **** 
 146:.\Generated_Source\PSoC4/BLE_1_eventHandler.c **** };
 147:.\Generated_Source\PSoC4/BLE_1_eventHandler.c **** 
 148:.\Generated_Source\PSoC4/BLE_1_eventHandler.c **** CYBLE_GAPC_T cyBle_gapc;
 149:.\Generated_Source\PSoC4/BLE_1_eventHandler.c **** 
 150:.\Generated_Source\PSoC4/BLE_1_eventHandler.c **** #endif /* CYBLE_GATT_ROLE_CLIENT */
 151:.\Generated_Source\PSoC4/BLE_1_eventHandler.c **** 
 152:.\Generated_Source\PSoC4/BLE_1_eventHandler.c **** /* Default device security */
 153:.\Generated_Source\PSoC4/BLE_1_eventHandler.c **** CYBLE_GAP_AUTH_INFO_T cyBle_authInfo =
 154:.\Generated_Source\PSoC4/BLE_1_eventHandler.c **** {
 155:.\Generated_Source\PSoC4/BLE_1_eventHandler.c ****     (CYBLE_GAP_SEC_MODE_1 | CYBLE_GAP_SEC_LEVEL_1 ), /* uint8 security */
 156:.\Generated_Source\PSoC4/BLE_1_eventHandler.c ****     CYBLE_GAP_BONDING_NONE, /* uint8 bonding */
 157:.\Generated_Source\PSoC4/BLE_1_eventHandler.c ****     0x10u,      /* uint8 ekeySize */
 158:.\Generated_Source\PSoC4/BLE_1_eventHandler.c ****     CYBLE_GAP_AUTH_ERROR_NONE, /* CYBLE_AUTH_FAILED_REASON_T authErr */
 159:.\Generated_Source\PSoC4/BLE_1_eventHandler.c **** };
 160:.\Generated_Source\PSoC4/BLE_1_eventHandler.c **** 
 161:.\Generated_Source\PSoC4/BLE_1_eventHandler.c **** #if(CYBLE_GATT_ROLE_SERVER)
 162:.\Generated_Source\PSoC4/BLE_1_eventHandler.c **** 
 163:.\Generated_Source\PSoC4/BLE_1_eventHandler.c **** 
 164:.\Generated_Source\PSoC4/BLE_1_eventHandler.c **** /******************************************************************************    
 165:.\Generated_Source\PSoC4/BLE_1_eventHandler.c **** ##Function Name: CyBle_WriteReqHandler
 166:.\Generated_Source\PSoC4/BLE_1_eventHandler.c **** *******************************************************************************
 167:.\Generated_Source\PSoC4/BLE_1_eventHandler.c **** 
 168:.\Generated_Source\PSoC4/BLE_1_eventHandler.c **** Summary:
 169:.\Generated_Source\PSoC4/BLE_1_eventHandler.c ****  Handles the Write Request event from BLE stack.
 170:.\Generated_Source\PSoC4/BLE_1_eventHandler.c **** 
 171:.\Generated_Source\PSoC4/BLE_1_eventHandler.c **** Parameters:
 172:.\Generated_Source\PSoC4/BLE_1_eventHandler.c ****  CYBLE_GATTS_WRITE_REQ_PARAM_T * eventParam - event parameter
 173:.\Generated_Source\PSoC4/BLE_1_eventHandler.c **** 
 174:.\Generated_Source\PSoC4/BLE_1_eventHandler.c **** Return:
 175:.\Generated_Source\PSoC4/BLE_1_eventHandler.c ****  None
 176:.\Generated_Source\PSoC4/BLE_1_eventHandler.c **** 
 177:.\Generated_Source\PSoC4/BLE_1_eventHandler.c **** ******************************************************************************/
 178:.\Generated_Source\PSoC4/BLE_1_eventHandler.c **** static void CyBle_WriteReqHandler(CYBLE_GATTS_WRITE_REQ_PARAM_T *eventParam)
 179:.\Generated_Source\PSoC4/BLE_1_eventHandler.c **** {
  39              		.loc 1 179 0
  40              		.cfi_startproc
  41 0000 90B5     		push	{r4, r7, lr}
  42              		.cfi_def_cfa_offset 12
  43              		.cfi_offset 4, -12
  44              		.cfi_offset 7, -8
  45              		.cfi_offset 14, -4
  46 0002 85B0     		sub	sp, sp, #20
  47              		.cfi_def_cfa_offset 32
  48 0004 00AF     		add	r7, sp, #0
  49              		.cfi_def_cfa_register 7
ARM GAS  C:\Users\mliha\AppData\Local\Temp\cc428Uxc.s 			page 5


  50 0006 7860     		str	r0, [r7, #4]
 180:.\Generated_Source\PSoC4/BLE_1_eventHandler.c ****     CYBLE_GATT_ERR_CODE_T gattErr;
 181:.\Generated_Source\PSoC4/BLE_1_eventHandler.c ****     
 182:.\Generated_Source\PSoC4/BLE_1_eventHandler.c ****     gattErr = CyBle_GattsWriteEventHandler(eventParam);
  51              		.loc 1 182 0
  52 0008 3C1C     		mov	r4, r7
  53 000a 0F34     		add	r4, r4, #15
  54 000c 7B68     		ldr	r3, [r7, #4]
  55 000e 181C     		mov	r0, r3
  56 0010 FFF7FEFF 		bl	CyBle_GattsWriteEventHandler
  57 0014 031C     		mov	r3, r0
  58 0016 2370     		strb	r3, [r4]
 183:.\Generated_Source\PSoC4/BLE_1_eventHandler.c **** #if defined(CYBLE_ANS_SERVER)
 184:.\Generated_Source\PSoC4/BLE_1_eventHandler.c ****     if((CYBLE_GATT_ERR_NONE == gattErr) && ((cyBle_eventHandlerFlag & CYBLE_CALLBACK) != 0u))
 185:.\Generated_Source\PSoC4/BLE_1_eventHandler.c ****     {
 186:.\Generated_Source\PSoC4/BLE_1_eventHandler.c ****         gattErr = CyBle_AnssWriteEventHandler(eventParam);
 187:.\Generated_Source\PSoC4/BLE_1_eventHandler.c ****     }
 188:.\Generated_Source\PSoC4/BLE_1_eventHandler.c **** #endif /* defined(CYBLE_ANS_SERVER) */
 189:.\Generated_Source\PSoC4/BLE_1_eventHandler.c **** #if defined(CYBLE_BAS_SERVER)
 190:.\Generated_Source\PSoC4/BLE_1_eventHandler.c ****     if((CYBLE_GATT_ERR_NONE == gattErr) && ((cyBle_eventHandlerFlag & CYBLE_CALLBACK) != 0u))
 191:.\Generated_Source\PSoC4/BLE_1_eventHandler.c ****     {
 192:.\Generated_Source\PSoC4/BLE_1_eventHandler.c ****         gattErr = CyBle_BassWriteEventHandler(eventParam);
 193:.\Generated_Source\PSoC4/BLE_1_eventHandler.c ****     }
 194:.\Generated_Source\PSoC4/BLE_1_eventHandler.c **** #endif /* defined(CYBLE_BAS_SERVER) */
 195:.\Generated_Source\PSoC4/BLE_1_eventHandler.c **** #if defined(CYBLE_BLS_SERVER)
 196:.\Generated_Source\PSoC4/BLE_1_eventHandler.c ****     if((CYBLE_GATT_ERR_NONE == gattErr) && ((cyBle_eventHandlerFlag & CYBLE_CALLBACK) != 0u))
 197:.\Generated_Source\PSoC4/BLE_1_eventHandler.c ****     {
 198:.\Generated_Source\PSoC4/BLE_1_eventHandler.c ****         gattErr = CyBle_BlssWriteEventHandler(eventParam);
 199:.\Generated_Source\PSoC4/BLE_1_eventHandler.c ****     }
 200:.\Generated_Source\PSoC4/BLE_1_eventHandler.c **** #endif /* defined(CYBLE_BLS_SERVER) */
 201:.\Generated_Source\PSoC4/BLE_1_eventHandler.c **** #if defined(CYBLE_CPS_SERVER)
 202:.\Generated_Source\PSoC4/BLE_1_eventHandler.c ****     if((CYBLE_GATT_ERR_NONE == gattErr) && ((cyBle_eventHandlerFlag & CYBLE_CALLBACK) != 0u))
 203:.\Generated_Source\PSoC4/BLE_1_eventHandler.c ****     {
 204:.\Generated_Source\PSoC4/BLE_1_eventHandler.c ****         gattErr = CyBle_CpssWriteEventHandler(eventParam);
 205:.\Generated_Source\PSoC4/BLE_1_eventHandler.c ****     }
 206:.\Generated_Source\PSoC4/BLE_1_eventHandler.c **** #endif /* defined(CYBLE_CPS_SERVER) */
 207:.\Generated_Source\PSoC4/BLE_1_eventHandler.c **** #if defined(CYBLE_CSCS_SERVER)
 208:.\Generated_Source\PSoC4/BLE_1_eventHandler.c ****     if((CYBLE_GATT_ERR_NONE == gattErr) && ((cyBle_eventHandlerFlag & CYBLE_CALLBACK) != 0u))
 209:.\Generated_Source\PSoC4/BLE_1_eventHandler.c ****     {
 210:.\Generated_Source\PSoC4/BLE_1_eventHandler.c ****         gattErr = CyBle_CscssWriteEventHandler(eventParam);
 211:.\Generated_Source\PSoC4/BLE_1_eventHandler.c ****     }
 212:.\Generated_Source\PSoC4/BLE_1_eventHandler.c **** #endif /* defined(CYBLE_CSCS_SERVER) */
 213:.\Generated_Source\PSoC4/BLE_1_eventHandler.c **** #if defined(CYBLE_CTS_SERVER)
 214:.\Generated_Source\PSoC4/BLE_1_eventHandler.c ****     if((CYBLE_GATT_ERR_NONE == gattErr) && ((cyBle_eventHandlerFlag & CYBLE_CALLBACK) != 0u))
 215:.\Generated_Source\PSoC4/BLE_1_eventHandler.c ****     {
 216:.\Generated_Source\PSoC4/BLE_1_eventHandler.c ****         gattErr = CyBle_CtssWriteEventHandler(eventParam);
 217:.\Generated_Source\PSoC4/BLE_1_eventHandler.c ****     }
 218:.\Generated_Source\PSoC4/BLE_1_eventHandler.c **** #endif /* defined(CYBLE_CTS_SERVER) */
 219:.\Generated_Source\PSoC4/BLE_1_eventHandler.c **** #if defined(CYBLE_GLS_SERVER)
 220:.\Generated_Source\PSoC4/BLE_1_eventHandler.c ****     if((CYBLE_GATT_ERR_NONE == gattErr) && ((cyBle_eventHandlerFlag & CYBLE_CALLBACK) != 0u))
 221:.\Generated_Source\PSoC4/BLE_1_eventHandler.c ****     {
 222:.\Generated_Source\PSoC4/BLE_1_eventHandler.c ****         gattErr = CyBle_GlssWriteEventHandler(eventParam);
 223:.\Generated_Source\PSoC4/BLE_1_eventHandler.c ****     }
 224:.\Generated_Source\PSoC4/BLE_1_eventHandler.c **** #endif /* defined(CYBLE_GLS_SERVER) */
 225:.\Generated_Source\PSoC4/BLE_1_eventHandler.c **** #if defined(CYBLE_HIDS_SERVER)
 226:.\Generated_Source\PSoC4/BLE_1_eventHandler.c ****     if((CYBLE_GATT_ERR_NONE == gattErr) && ((cyBle_eventHandlerFlag & CYBLE_CALLBACK) != 0u))
 227:.\Generated_Source\PSoC4/BLE_1_eventHandler.c ****     {
ARM GAS  C:\Users\mliha\AppData\Local\Temp\cc428Uxc.s 			page 6


 228:.\Generated_Source\PSoC4/BLE_1_eventHandler.c ****         gattErr = CyBle_HidssWriteEventHandler(eventParam);
 229:.\Generated_Source\PSoC4/BLE_1_eventHandler.c ****     }
 230:.\Generated_Source\PSoC4/BLE_1_eventHandler.c **** #endif /* defined(CYBLE_HIDS_SERVER) */
 231:.\Generated_Source\PSoC4/BLE_1_eventHandler.c **** #if defined(CYBLE_HRS_SERVER)
 232:.\Generated_Source\PSoC4/BLE_1_eventHandler.c ****     if((CYBLE_GATT_ERR_NONE == gattErr) && ((cyBle_eventHandlerFlag & CYBLE_CALLBACK) != 0u))
  59              		.loc 1 232 0
  60 0018 3B1C     		mov	r3, r7
  61 001a 0F33     		add	r3, r3, #15
  62 001c 1B78     		ldrb	r3, [r3]
  63 001e 002B     		cmp	r3, #0
  64 0020 0ED1     		bne	.L2
  65              		.loc 1 232 0 is_stmt 0 discriminator 1
  66 0022 1C4B     		ldr	r3, .L5
  67 0024 1B78     		ldrb	r3, [r3]
  68 0026 DBB2     		uxtb	r3, r3
  69 0028 1A1C     		mov	r2, r3
  70 002a 0123     		mov	r3, #1
  71 002c 1340     		and	r3, r2
  72 002e 07D0     		beq	.L2
 233:.\Generated_Source\PSoC4/BLE_1_eventHandler.c ****     {
 234:.\Generated_Source\PSoC4/BLE_1_eventHandler.c ****         gattErr = CyBle_HrssWriteEventHandler(eventParam);
  73              		.loc 1 234 0 is_stmt 1
  74 0030 3C1C     		mov	r4, r7
  75 0032 0F34     		add	r4, r4, #15
  76 0034 7B68     		ldr	r3, [r7, #4]
  77 0036 181C     		mov	r0, r3
  78 0038 FFF7FEFF 		bl	CyBle_HrssWriteEventHandler
  79 003c 031C     		mov	r3, r0
  80 003e 2370     		strb	r3, [r4]
  81              	.L2:
 235:.\Generated_Source\PSoC4/BLE_1_eventHandler.c ****     }
 236:.\Generated_Source\PSoC4/BLE_1_eventHandler.c **** #endif /* defined(CYBLE_HRS_SERVER) */
 237:.\Generated_Source\PSoC4/BLE_1_eventHandler.c **** #if defined(CYBLE_HTS_SERVER)
 238:.\Generated_Source\PSoC4/BLE_1_eventHandler.c ****     if((CYBLE_GATT_ERR_NONE == gattErr) && ((cyBle_eventHandlerFlag & CYBLE_CALLBACK) != 0u))
 239:.\Generated_Source\PSoC4/BLE_1_eventHandler.c ****     {
 240:.\Generated_Source\PSoC4/BLE_1_eventHandler.c ****         gattErr = CyBle_HtssWriteEventHandler(eventParam);
 241:.\Generated_Source\PSoC4/BLE_1_eventHandler.c ****     }
 242:.\Generated_Source\PSoC4/BLE_1_eventHandler.c **** #endif /* defined(CYBLE_TPS_SERVER) */
 243:.\Generated_Source\PSoC4/BLE_1_eventHandler.c **** #if defined(CYBLE_LLS_SERVER)
 244:.\Generated_Source\PSoC4/BLE_1_eventHandler.c ****     if((CYBLE_GATT_ERR_NONE == gattErr) && ((cyBle_eventHandlerFlag & CYBLE_CALLBACK) != 0u))
 245:.\Generated_Source\PSoC4/BLE_1_eventHandler.c ****     {
 246:.\Generated_Source\PSoC4/BLE_1_eventHandler.c ****         gattErr = CyBle_LlssWriteEventHandler(eventParam);
 247:.\Generated_Source\PSoC4/BLE_1_eventHandler.c ****     }
 248:.\Generated_Source\PSoC4/BLE_1_eventHandler.c **** #endif /* defined(CYBLE_LLS_SERVER) */
 249:.\Generated_Source\PSoC4/BLE_1_eventHandler.c **** #if defined(CYBLE_LNS_SERVER)
 250:.\Generated_Source\PSoC4/BLE_1_eventHandler.c ****     if((CYBLE_GATT_ERR_NONE == gattErr) && ((cyBle_eventHandlerFlag & CYBLE_CALLBACK) != 0u))
 251:.\Generated_Source\PSoC4/BLE_1_eventHandler.c ****     {
 252:.\Generated_Source\PSoC4/BLE_1_eventHandler.c ****         gattErr = CyBle_LnssWriteEventHandler(eventParam);
 253:.\Generated_Source\PSoC4/BLE_1_eventHandler.c ****     }
 254:.\Generated_Source\PSoC4/BLE_1_eventHandler.c **** #endif /* defined(CYBLE_LNS_SERVER) */
 255:.\Generated_Source\PSoC4/BLE_1_eventHandler.c **** #if defined(CYBLE_PASS_SERVER)
 256:.\Generated_Source\PSoC4/BLE_1_eventHandler.c ****     if((CYBLE_GATT_ERR_NONE == gattErr) && ((cyBle_eventHandlerFlag & CYBLE_CALLBACK) != 0u))
 257:.\Generated_Source\PSoC4/BLE_1_eventHandler.c ****     {
 258:.\Generated_Source\PSoC4/BLE_1_eventHandler.c ****         gattErr = CyBle_PasssWriteEventHandler(eventParam);
 259:.\Generated_Source\PSoC4/BLE_1_eventHandler.c ****     }
 260:.\Generated_Source\PSoC4/BLE_1_eventHandler.c **** #endif /* defined(CYBLE_PASS_SERVER) */
 261:.\Generated_Source\PSoC4/BLE_1_eventHandler.c **** #if defined(CYBLE_RSCS_SERVER)
ARM GAS  C:\Users\mliha\AppData\Local\Temp\cc428Uxc.s 			page 7


 262:.\Generated_Source\PSoC4/BLE_1_eventHandler.c ****     if((CYBLE_GATT_ERR_NONE == gattErr) && ((cyBle_eventHandlerFlag & CYBLE_CALLBACK) != 0u))
 263:.\Generated_Source\PSoC4/BLE_1_eventHandler.c ****     {
 264:.\Generated_Source\PSoC4/BLE_1_eventHandler.c ****         gattErr = CyBle_RscssWriteEventHandler(eventParam);
 265:.\Generated_Source\PSoC4/BLE_1_eventHandler.c ****     }
 266:.\Generated_Source\PSoC4/BLE_1_eventHandler.c **** #endif /* defined(CYBLE_RSCS_SERVER) */
 267:.\Generated_Source\PSoC4/BLE_1_eventHandler.c **** #if defined(CYBLE_SCPS_SERVER)
 268:.\Generated_Source\PSoC4/BLE_1_eventHandler.c ****     if((CYBLE_GATT_ERR_NONE == gattErr) && ((cyBle_eventHandlerFlag & CYBLE_CALLBACK) != 0u))
 269:.\Generated_Source\PSoC4/BLE_1_eventHandler.c ****     {
 270:.\Generated_Source\PSoC4/BLE_1_eventHandler.c ****         gattErr = CyBle_ScpssWriteEventHandler(eventParam);
 271:.\Generated_Source\PSoC4/BLE_1_eventHandler.c ****     }
 272:.\Generated_Source\PSoC4/BLE_1_eventHandler.c **** #endif /* defined(CYBLE_SCPS_SERVER) */
 273:.\Generated_Source\PSoC4/BLE_1_eventHandler.c **** #if defined(CYBLE_TPS_SERVER)
 274:.\Generated_Source\PSoC4/BLE_1_eventHandler.c ****     if((CYBLE_GATT_ERR_NONE == gattErr) && ((cyBle_eventHandlerFlag & CYBLE_CALLBACK) != 0u))
 275:.\Generated_Source\PSoC4/BLE_1_eventHandler.c ****     {
 276:.\Generated_Source\PSoC4/BLE_1_eventHandler.c ****         gattErr = CyBle_TpssWriteEventHandler(eventParam);
 277:.\Generated_Source\PSoC4/BLE_1_eventHandler.c ****     }
 278:.\Generated_Source\PSoC4/BLE_1_eventHandler.c **** #endif /* defined(CYBLE_TPS_SERVER) */
 279:.\Generated_Source\PSoC4/BLE_1_eventHandler.c **** 
 280:.\Generated_Source\PSoC4/BLE_1_eventHandler.c ****     /* Send response when event was handled by service */
 281:.\Generated_Source\PSoC4/BLE_1_eventHandler.c ****     if((cyBle_eventHandlerFlag & CYBLE_CALLBACK) == 0u)
  82              		.loc 1 281 0
  83 0040 144B     		ldr	r3, .L5
  84 0042 1B78     		ldrb	r3, [r3]
  85 0044 DBB2     		uxtb	r3, r3
  86 0046 1A1C     		mov	r2, r3
  87 0048 0123     		mov	r3, #1
  88 004a 1340     		and	r3, r2
  89 004c 1FD1     		bne	.L1
 282:.\Generated_Source\PSoC4/BLE_1_eventHandler.c ****     {
 283:.\Generated_Source\PSoC4/BLE_1_eventHandler.c ****         if(CYBLE_GATT_ERR_NONE != gattErr)
  90              		.loc 1 283 0
  91 004e 3B1C     		mov	r3, r7
  92 0050 0F33     		add	r3, r3, #15
  93 0052 1B78     		ldrb	r3, [r3]
  94 0054 002B     		cmp	r3, #0
  95 0056 16D0     		beq	.L4
  96              	.LBB2:
 284:.\Generated_Source\PSoC4/BLE_1_eventHandler.c ****         {
 285:.\Generated_Source\PSoC4/BLE_1_eventHandler.c ****             CYBLE_GATTS_ERR_PARAM_T err_param;
 286:.\Generated_Source\PSoC4/BLE_1_eventHandler.c ****             
 287:.\Generated_Source\PSoC4/BLE_1_eventHandler.c ****             err_param.opcode = (uint8) CYBLE_GATT_WRITE_REQ;
  97              		.loc 1 287 0
  98 0058 3B1C     		mov	r3, r7
  99 005a 0833     		add	r3, r3, #8
 100 005c 1222     		mov	r2, #18
 101 005e 9A70     		strb	r2, [r3, #2]
 288:.\Generated_Source\PSoC4/BLE_1_eventHandler.c ****             err_param.attrHandle = eventParam->handleValPair.attrHandle;
 102              		.loc 1 288 0
 103 0060 7B68     		ldr	r3, [r7, #4]
 104 0062 9A89     		ldrh	r2, [r3, #12]
 105 0064 3B1C     		mov	r3, r7
 106 0066 0833     		add	r3, r3, #8
 107 0068 1A80     		strh	r2, [r3]
 289:.\Generated_Source\PSoC4/BLE_1_eventHandler.c ****             err_param.errorCode = gattErr;
 108              		.loc 1 289 0
 109 006a 3B1C     		mov	r3, r7
 110 006c 0833     		add	r3, r3, #8
ARM GAS  C:\Users\mliha\AppData\Local\Temp\cc428Uxc.s 			page 8


 111 006e 3A1C     		mov	r2, r7
 112 0070 0F32     		add	r2, r2, #15
 113 0072 1278     		ldrb	r2, [r2]
 114 0074 DA70     		strb	r2, [r3, #3]
 290:.\Generated_Source\PSoC4/BLE_1_eventHandler.c **** 
 291:.\Generated_Source\PSoC4/BLE_1_eventHandler.c ****             /* Send Error Response */
 292:.\Generated_Source\PSoC4/BLE_1_eventHandler.c ****             (void)CyBle_GattsErrorRsp(eventParam->connHandle, &err_param);
 115              		.loc 1 292 0
 116 0076 7B68     		ldr	r3, [r7, #4]
 117 0078 3A1C     		mov	r2, r7
 118 007a 0832     		add	r2, r2, #8
 119 007c 1868     		ldr	r0, [r3]
 120 007e 111C     		mov	r1, r2
 121 0080 FFF7FEFF 		bl	CyBle_GattsErrorRsp
 122              	.LBE2:
 123 0084 03E0     		b	.L1
 124              	.L4:
 293:.\Generated_Source\PSoC4/BLE_1_eventHandler.c ****         }
 294:.\Generated_Source\PSoC4/BLE_1_eventHandler.c ****         else
 295:.\Generated_Source\PSoC4/BLE_1_eventHandler.c ****         {
 296:.\Generated_Source\PSoC4/BLE_1_eventHandler.c ****             (void)CyBle_GattsWriteRsp(eventParam->connHandle);
 125              		.loc 1 296 0
 126 0086 7B68     		ldr	r3, [r7, #4]
 127 0088 1868     		ldr	r0, [r3]
 128 008a FFF7FEFF 		bl	CyBle_GattsWriteRsp
 129              	.L1:
 297:.\Generated_Source\PSoC4/BLE_1_eventHandler.c ****         }
 298:.\Generated_Source\PSoC4/BLE_1_eventHandler.c ****     }
 299:.\Generated_Source\PSoC4/BLE_1_eventHandler.c **** }
 130              		.loc 1 299 0
 131 008e BD46     		mov	sp, r7
 132 0090 05B0     		add	sp, sp, #20
 133              		@ sp needed
 134 0092 90BD     		pop	{r4, r7, pc}
 135              	.L6:
 136              		.align	2
 137              	.L5:
 138 0094 00000000 		.word	cyBle_eventHandlerFlag
 139              		.cfi_endproc
 140              	.LFE2:
 141              		.size	CyBle_WriteReqHandler, .-CyBle_WriteReqHandler
 142              		.section	.text.CyBle_ValueConfirmation,"ax",%progbits
 143              		.align	2
 144              		.code	16
 145              		.thumb_func
 146              		.type	CyBle_ValueConfirmation, %function
 147              	CyBle_ValueConfirmation:
 148              	.LFB3:
 300:.\Generated_Source\PSoC4/BLE_1_eventHandler.c **** 
 301:.\Generated_Source\PSoC4/BLE_1_eventHandler.c **** 
 302:.\Generated_Source\PSoC4/BLE_1_eventHandler.c **** /****************************************************************************** 
 303:.\Generated_Source\PSoC4/BLE_1_eventHandler.c **** ##Function Name: CyBle_ValueConfirmation
 304:.\Generated_Source\PSoC4/BLE_1_eventHandler.c **** *******************************************************************************
 305:.\Generated_Source\PSoC4/BLE_1_eventHandler.c **** 
 306:.\Generated_Source\PSoC4/BLE_1_eventHandler.c **** Summary:
 307:.\Generated_Source\PSoC4/BLE_1_eventHandler.c ****  Handles the Value Confirmation request event from the BLE stack.
 308:.\Generated_Source\PSoC4/BLE_1_eventHandler.c **** 
ARM GAS  C:\Users\mliha\AppData\Local\Temp\cc428Uxc.s 			page 9


 309:.\Generated_Source\PSoC4/BLE_1_eventHandler.c **** Parameters:
 310:.\Generated_Source\PSoC4/BLE_1_eventHandler.c ****  CYBLE_CONN_HANDLE_T *eventParam - Pointer to a structure
 311:.\Generated_Source\PSoC4/BLE_1_eventHandler.c ****     of type 'CYBLE_CONN_HANDLE_T'
 312:.\Generated_Source\PSoC4/BLE_1_eventHandler.c **** 
 313:.\Generated_Source\PSoC4/BLE_1_eventHandler.c **** Return:
 314:.\Generated_Source\PSoC4/BLE_1_eventHandler.c ****  None
 315:.\Generated_Source\PSoC4/BLE_1_eventHandler.c **** 
 316:.\Generated_Source\PSoC4/BLE_1_eventHandler.c **** ******************************************************************************/
 317:.\Generated_Source\PSoC4/BLE_1_eventHandler.c **** static void CyBle_ValueConfirmation(const CYBLE_CONN_HANDLE_T *eventParam)
 318:.\Generated_Source\PSoC4/BLE_1_eventHandler.c **** {
 149              		.loc 1 318 0
 150              		.cfi_startproc
 151 0000 80B5     		push	{r7, lr}
 152              		.cfi_def_cfa_offset 8
 153              		.cfi_offset 7, -8
 154              		.cfi_offset 14, -4
 155 0002 82B0     		sub	sp, sp, #8
 156              		.cfi_def_cfa_offset 16
 157 0004 00AF     		add	r7, sp, #0
 158              		.cfi_def_cfa_register 7
 159 0006 7860     		str	r0, [r7, #4]
 319:.\Generated_Source\PSoC4/BLE_1_eventHandler.c ****     if(eventParam != NULL)
 320:.\Generated_Source\PSoC4/BLE_1_eventHandler.c ****     {
 321:.\Generated_Source\PSoC4/BLE_1_eventHandler.c ****     #if defined(CYBLE_BLS_SERVER)
 322:.\Generated_Source\PSoC4/BLE_1_eventHandler.c ****         CyBle_BlssConfirmationEventHandler(eventParam);
 323:.\Generated_Source\PSoC4/BLE_1_eventHandler.c ****     #endif /* defined(CYBLE_BLS_SERVER) */
 324:.\Generated_Source\PSoC4/BLE_1_eventHandler.c ****     
 325:.\Generated_Source\PSoC4/BLE_1_eventHandler.c ****     #if defined(CYBLE_CPS_SERVER)
 326:.\Generated_Source\PSoC4/BLE_1_eventHandler.c ****         if((cyBle_eventHandlerFlag & CYBLE_CALLBACK) != 0u)
 327:.\Generated_Source\PSoC4/BLE_1_eventHandler.c ****         {
 328:.\Generated_Source\PSoC4/BLE_1_eventHandler.c ****             CyBle_CpssConfirmationEventHandler(eventParam);
 329:.\Generated_Source\PSoC4/BLE_1_eventHandler.c ****         }
 330:.\Generated_Source\PSoC4/BLE_1_eventHandler.c ****     #endif /* defined(CYBLE_CPS_SERVER) */
 331:.\Generated_Source\PSoC4/BLE_1_eventHandler.c ****     
 332:.\Generated_Source\PSoC4/BLE_1_eventHandler.c ****     #if defined(CYBLE_CSCS_SERVER)
 333:.\Generated_Source\PSoC4/BLE_1_eventHandler.c ****         if((cyBle_eventHandlerFlag & CYBLE_CALLBACK) != 0u)
 334:.\Generated_Source\PSoC4/BLE_1_eventHandler.c ****         {
 335:.\Generated_Source\PSoC4/BLE_1_eventHandler.c ****             CyBle_CscssConfirmationEventHandler(eventParam);
 336:.\Generated_Source\PSoC4/BLE_1_eventHandler.c ****         }
 337:.\Generated_Source\PSoC4/BLE_1_eventHandler.c ****     #endif /* defined(CYBLE_CSCS_SERVER) */
 338:.\Generated_Source\PSoC4/BLE_1_eventHandler.c ****     
 339:.\Generated_Source\PSoC4/BLE_1_eventHandler.c ****     #if defined(CYBLE_GLS_SERVER)
 340:.\Generated_Source\PSoC4/BLE_1_eventHandler.c ****         if((cyBle_eventHandlerFlag & CYBLE_CALLBACK) != 0u)
 341:.\Generated_Source\PSoC4/BLE_1_eventHandler.c ****         {
 342:.\Generated_Source\PSoC4/BLE_1_eventHandler.c ****             CyBle_GlssConfirmationEventHandler(eventParam);
 343:.\Generated_Source\PSoC4/BLE_1_eventHandler.c ****         }
 344:.\Generated_Source\PSoC4/BLE_1_eventHandler.c ****     #endif /* defined(CYBLE_GLS_SERVER) */
 345:.\Generated_Source\PSoC4/BLE_1_eventHandler.c ****     
 346:.\Generated_Source\PSoC4/BLE_1_eventHandler.c ****     #if defined(CYBLE_HTS_SERVER)
 347:.\Generated_Source\PSoC4/BLE_1_eventHandler.c ****         if((cyBle_eventHandlerFlag & CYBLE_CALLBACK) != 0u)
 348:.\Generated_Source\PSoC4/BLE_1_eventHandler.c ****         {
 349:.\Generated_Source\PSoC4/BLE_1_eventHandler.c ****             CyBle_HtssConfirmationEventHandler(eventParam);
 350:.\Generated_Source\PSoC4/BLE_1_eventHandler.c ****         }
 351:.\Generated_Source\PSoC4/BLE_1_eventHandler.c ****     #endif /* defined(CYBLE_HTS_SERVER) */
 352:.\Generated_Source\PSoC4/BLE_1_eventHandler.c **** 
 353:.\Generated_Source\PSoC4/BLE_1_eventHandler.c ****     #if defined(CYBLE_LNS_SERVER)
 354:.\Generated_Source\PSoC4/BLE_1_eventHandler.c ****         if((cyBle_eventHandlerFlag & CYBLE_CALLBACK) != 0u)
ARM GAS  C:\Users\mliha\AppData\Local\Temp\cc428Uxc.s 			page 10


 355:.\Generated_Source\PSoC4/BLE_1_eventHandler.c ****         {
 356:.\Generated_Source\PSoC4/BLE_1_eventHandler.c ****             CyBle_LnssConfirmationEventHandler(eventParam);
 357:.\Generated_Source\PSoC4/BLE_1_eventHandler.c ****         }
 358:.\Generated_Source\PSoC4/BLE_1_eventHandler.c ****     #endif /* defined(CYBLE_LNS_SERVER) */
 359:.\Generated_Source\PSoC4/BLE_1_eventHandler.c ****     
 360:.\Generated_Source\PSoC4/BLE_1_eventHandler.c ****     #if defined(CYBLE_RSCS_SERVER)
 361:.\Generated_Source\PSoC4/BLE_1_eventHandler.c ****         if((cyBle_eventHandlerFlag & CYBLE_CALLBACK) != 0u)
 362:.\Generated_Source\PSoC4/BLE_1_eventHandler.c ****         {
 363:.\Generated_Source\PSoC4/BLE_1_eventHandler.c ****             CyBle_RscssConfirmationEventHandler(eventParam);
 364:.\Generated_Source\PSoC4/BLE_1_eventHandler.c ****         }
 365:.\Generated_Source\PSoC4/BLE_1_eventHandler.c ****     #endif /* defined(CYBLE_RSCS_SERVER) */
 366:.\Generated_Source\PSoC4/BLE_1_eventHandler.c ****     }
 367:.\Generated_Source\PSoC4/BLE_1_eventHandler.c **** }
 160              		.loc 1 367 0
 161 0008 BD46     		mov	sp, r7
 162 000a 02B0     		add	sp, sp, #8
 163              		@ sp needed
 164 000c 80BD     		pop	{r7, pc}
 165              		.cfi_endproc
 166              	.LFE3:
 167              		.size	CyBle_ValueConfirmation, .-CyBle_ValueConfirmation
 168              		.section	.text.CyBle_GattDisconnectEventHandler,"ax",%progbits
 169              		.align	2
 170              		.code	16
 171              		.thumb_func
 172              		.type	CyBle_GattDisconnectEventHandler, %function
 173              	CyBle_GattDisconnectEventHandler:
 174              	.LFB4:
 368:.\Generated_Source\PSoC4/BLE_1_eventHandler.c **** 
 369:.\Generated_Source\PSoC4/BLE_1_eventHandler.c **** #endif /* (CYBLE_GATT_ROLE_SERVER) */
 370:.\Generated_Source\PSoC4/BLE_1_eventHandler.c **** 
 371:.\Generated_Source\PSoC4/BLE_1_eventHandler.c **** 
 372:.\Generated_Source\PSoC4/BLE_1_eventHandler.c **** #if (CYBLE_GATT_ROLE_CLIENT)
 373:.\Generated_Source\PSoC4/BLE_1_eventHandler.c **** 
 374:.\Generated_Source\PSoC4/BLE_1_eventHandler.c **** /****************************************************************************** 
 375:.\Generated_Source\PSoC4/BLE_1_eventHandler.c **** ##Function Name: CyBle_GattcWriteResponseEventHandler
 376:.\Generated_Source\PSoC4/BLE_1_eventHandler.c **** *******************************************************************************
 377:.\Generated_Source\PSoC4/BLE_1_eventHandler.c **** 
 378:.\Generated_Source\PSoC4/BLE_1_eventHandler.c **** Summary:
 379:.\Generated_Source\PSoC4/BLE_1_eventHandler.c ****  Handles the Write response event from the BLE stack.
 380:.\Generated_Source\PSoC4/BLE_1_eventHandler.c **** 
 381:.\Generated_Source\PSoC4/BLE_1_eventHandler.c **** Parameters:
 382:.\Generated_Source\PSoC4/BLE_1_eventHandler.c ****  CYBLE_CONN_HANDLE_T *eventParam - Pointer to a structure
 383:.\Generated_Source\PSoC4/BLE_1_eventHandler.c ****     of type 'CYBLE_CONN_HANDLE_T'
 384:.\Generated_Source\PSoC4/BLE_1_eventHandler.c **** 
 385:.\Generated_Source\PSoC4/BLE_1_eventHandler.c **** Return:
 386:.\Generated_Source\PSoC4/BLE_1_eventHandler.c ****  None
 387:.\Generated_Source\PSoC4/BLE_1_eventHandler.c **** 
 388:.\Generated_Source\PSoC4/BLE_1_eventHandler.c **** ******************************************************************************/
 389:.\Generated_Source\PSoC4/BLE_1_eventHandler.c **** static void CyBle_GattcWriteResponseEventHandler(const CYBLE_CONN_HANDLE_T *eventParam)
 390:.\Generated_Source\PSoC4/BLE_1_eventHandler.c **** {
 391:.\Generated_Source\PSoC4/BLE_1_eventHandler.c **** #ifdef CYBLE_ANS_CLIENT
 392:.\Generated_Source\PSoC4/BLE_1_eventHandler.c ****     CyBle_AnscWriteResponseEventHandler(eventParam);
 393:.\Generated_Source\PSoC4/BLE_1_eventHandler.c **** #endif /* CYBLE_ANS_CLIENT */
 394:.\Generated_Source\PSoC4/BLE_1_eventHandler.c **** 
 395:.\Generated_Source\PSoC4/BLE_1_eventHandler.c **** #ifdef CYBLE_BAS_CLIENT
 396:.\Generated_Source\PSoC4/BLE_1_eventHandler.c ****     if((cyBle_eventHandlerFlag & CYBLE_CALLBACK) != 0u)
ARM GAS  C:\Users\mliha\AppData\Local\Temp\cc428Uxc.s 			page 11


 397:.\Generated_Source\PSoC4/BLE_1_eventHandler.c ****     {
 398:.\Generated_Source\PSoC4/BLE_1_eventHandler.c ****         CyBle_BascWriteResponseEventHandler(eventParam);
 399:.\Generated_Source\PSoC4/BLE_1_eventHandler.c ****     }
 400:.\Generated_Source\PSoC4/BLE_1_eventHandler.c **** #endif /* CYBLE_BAS_CLIENT */
 401:.\Generated_Source\PSoC4/BLE_1_eventHandler.c **** 
 402:.\Generated_Source\PSoC4/BLE_1_eventHandler.c **** #ifdef CYBLE_BLS_CLIENT
 403:.\Generated_Source\PSoC4/BLE_1_eventHandler.c ****     if((cyBle_eventHandlerFlag & CYBLE_CALLBACK) != 0u)
 404:.\Generated_Source\PSoC4/BLE_1_eventHandler.c ****     {
 405:.\Generated_Source\PSoC4/BLE_1_eventHandler.c ****         CyBle_BlscWriteResponseEventHandler(eventParam);
 406:.\Generated_Source\PSoC4/BLE_1_eventHandler.c ****     }
 407:.\Generated_Source\PSoC4/BLE_1_eventHandler.c **** #endif /* CYBLE_BLS_CLIENT */
 408:.\Generated_Source\PSoC4/BLE_1_eventHandler.c **** 
 409:.\Generated_Source\PSoC4/BLE_1_eventHandler.c **** #ifdef CYBLE_CPS_CLIENT
 410:.\Generated_Source\PSoC4/BLE_1_eventHandler.c ****     if((cyBle_eventHandlerFlag & CYBLE_CALLBACK) != 0u)
 411:.\Generated_Source\PSoC4/BLE_1_eventHandler.c ****     {
 412:.\Generated_Source\PSoC4/BLE_1_eventHandler.c ****         CyBle_CpscWriteResponseEventHandler(eventParam);
 413:.\Generated_Source\PSoC4/BLE_1_eventHandler.c ****     }
 414:.\Generated_Source\PSoC4/BLE_1_eventHandler.c **** #endif /* CYBLE_CPS_CLIENT */
 415:.\Generated_Source\PSoC4/BLE_1_eventHandler.c **** 
 416:.\Generated_Source\PSoC4/BLE_1_eventHandler.c **** #ifdef CYBLE_CSCS_CLIENT
 417:.\Generated_Source\PSoC4/BLE_1_eventHandler.c ****     if((cyBle_eventHandlerFlag & CYBLE_CALLBACK) != 0u)
 418:.\Generated_Source\PSoC4/BLE_1_eventHandler.c ****     {
 419:.\Generated_Source\PSoC4/BLE_1_eventHandler.c ****         CyBle_CscscWriteResponseEventHandler(eventParam);
 420:.\Generated_Source\PSoC4/BLE_1_eventHandler.c ****     }
 421:.\Generated_Source\PSoC4/BLE_1_eventHandler.c **** #endif /* CYBLE_CSCS_CLIENT */
 422:.\Generated_Source\PSoC4/BLE_1_eventHandler.c **** 
 423:.\Generated_Source\PSoC4/BLE_1_eventHandler.c **** #ifdef CYBLE_CTS_CLIENT
 424:.\Generated_Source\PSoC4/BLE_1_eventHandler.c ****     if((cyBle_eventHandlerFlag & CYBLE_CALLBACK) != 0u)
 425:.\Generated_Source\PSoC4/BLE_1_eventHandler.c ****     {
 426:.\Generated_Source\PSoC4/BLE_1_eventHandler.c ****         CyBle_CtscWriteResponseEventHandler(eventParam);
 427:.\Generated_Source\PSoC4/BLE_1_eventHandler.c ****     }
 428:.\Generated_Source\PSoC4/BLE_1_eventHandler.c **** #endif /* CYBLE_CTS_CLIENT */
 429:.\Generated_Source\PSoC4/BLE_1_eventHandler.c **** 
 430:.\Generated_Source\PSoC4/BLE_1_eventHandler.c **** #ifdef CYBLE_GLS_CLIENT
 431:.\Generated_Source\PSoC4/BLE_1_eventHandler.c ****     if((cyBle_eventHandlerFlag & CYBLE_CALLBACK) != 0u)
 432:.\Generated_Source\PSoC4/BLE_1_eventHandler.c ****     {
 433:.\Generated_Source\PSoC4/BLE_1_eventHandler.c ****         CyBle_GlscWriteResponseEventHandler(eventParam);
 434:.\Generated_Source\PSoC4/BLE_1_eventHandler.c ****     }
 435:.\Generated_Source\PSoC4/BLE_1_eventHandler.c **** #endif /* CYBLE_GLS_CLIENT */
 436:.\Generated_Source\PSoC4/BLE_1_eventHandler.c **** 
 437:.\Generated_Source\PSoC4/BLE_1_eventHandler.c **** #ifdef CYBLE_HIDS_CLIENT
 438:.\Generated_Source\PSoC4/BLE_1_eventHandler.c ****     if((cyBle_eventHandlerFlag & CYBLE_CALLBACK) != 0u)
 439:.\Generated_Source\PSoC4/BLE_1_eventHandler.c ****     {
 440:.\Generated_Source\PSoC4/BLE_1_eventHandler.c ****         CyBle_HidscWriteResponseEventHandler(eventParam);
 441:.\Generated_Source\PSoC4/BLE_1_eventHandler.c ****     }
 442:.\Generated_Source\PSoC4/BLE_1_eventHandler.c **** #endif /* CYBLE_HIDS_CLIENT */
 443:.\Generated_Source\PSoC4/BLE_1_eventHandler.c **** 
 444:.\Generated_Source\PSoC4/BLE_1_eventHandler.c **** #ifdef CYBLE_HRS_CLIENT
 445:.\Generated_Source\PSoC4/BLE_1_eventHandler.c ****     if((cyBle_eventHandlerFlag & CYBLE_CALLBACK) != 0u)
 446:.\Generated_Source\PSoC4/BLE_1_eventHandler.c ****     {
 447:.\Generated_Source\PSoC4/BLE_1_eventHandler.c ****         CyBle_HrscWriteResponseEventHandler(eventParam);
 448:.\Generated_Source\PSoC4/BLE_1_eventHandler.c ****     }
 449:.\Generated_Source\PSoC4/BLE_1_eventHandler.c **** #endif /* CYBLE_HRS_CLIENT */
 450:.\Generated_Source\PSoC4/BLE_1_eventHandler.c **** 
 451:.\Generated_Source\PSoC4/BLE_1_eventHandler.c **** #ifdef CYBLE_HTS_CLIENT
 452:.\Generated_Source\PSoC4/BLE_1_eventHandler.c ****     if((cyBle_eventHandlerFlag & CYBLE_CALLBACK) != 0u)
 453:.\Generated_Source\PSoC4/BLE_1_eventHandler.c ****     {
ARM GAS  C:\Users\mliha\AppData\Local\Temp\cc428Uxc.s 			page 12


 454:.\Generated_Source\PSoC4/BLE_1_eventHandler.c ****         CyBle_HtscWriteResponseEventHandler(eventParam);
 455:.\Generated_Source\PSoC4/BLE_1_eventHandler.c ****     }
 456:.\Generated_Source\PSoC4/BLE_1_eventHandler.c **** #endif /* CYBLE_HTS_CLIENT */
 457:.\Generated_Source\PSoC4/BLE_1_eventHandler.c **** 
 458:.\Generated_Source\PSoC4/BLE_1_eventHandler.c **** #ifdef CYBLE_LLS_CLIENT
 459:.\Generated_Source\PSoC4/BLE_1_eventHandler.c ****     if((cyBle_eventHandlerFlag & CYBLE_CALLBACK) != 0u)
 460:.\Generated_Source\PSoC4/BLE_1_eventHandler.c ****     {
 461:.\Generated_Source\PSoC4/BLE_1_eventHandler.c ****         CyBle_LlscWriteResponseEventHandler(eventParam);
 462:.\Generated_Source\PSoC4/BLE_1_eventHandler.c ****     }
 463:.\Generated_Source\PSoC4/BLE_1_eventHandler.c **** #endif /* CYBLE_LLS_CLIENT */
 464:.\Generated_Source\PSoC4/BLE_1_eventHandler.c **** 
 465:.\Generated_Source\PSoC4/BLE_1_eventHandler.c **** #ifdef CYBLE_LNS_CLIENT
 466:.\Generated_Source\PSoC4/BLE_1_eventHandler.c ****     if((cyBle_eventHandlerFlag & CYBLE_CALLBACK) != 0u)
 467:.\Generated_Source\PSoC4/BLE_1_eventHandler.c ****     {
 468:.\Generated_Source\PSoC4/BLE_1_eventHandler.c ****         CyBle_LnscWriteResponseEventHandler(eventParam);
 469:.\Generated_Source\PSoC4/BLE_1_eventHandler.c ****     }
 470:.\Generated_Source\PSoC4/BLE_1_eventHandler.c **** #endif /* CYBLE_LNS_CLIENT */
 471:.\Generated_Source\PSoC4/BLE_1_eventHandler.c **** 
 472:.\Generated_Source\PSoC4/BLE_1_eventHandler.c **** #ifdef CYBLE_PASS_CLIENT
 473:.\Generated_Source\PSoC4/BLE_1_eventHandler.c ****     if((cyBle_eventHandlerFlag & CYBLE_CALLBACK) != 0u)
 474:.\Generated_Source\PSoC4/BLE_1_eventHandler.c ****     {
 475:.\Generated_Source\PSoC4/BLE_1_eventHandler.c ****         CyBle_PasscWriteResponseEventHandler(eventParam);
 476:.\Generated_Source\PSoC4/BLE_1_eventHandler.c ****     }
 477:.\Generated_Source\PSoC4/BLE_1_eventHandler.c **** #endif /* CYBLE_PASS_CLIENT */
 478:.\Generated_Source\PSoC4/BLE_1_eventHandler.c **** 
 479:.\Generated_Source\PSoC4/BLE_1_eventHandler.c **** #ifdef CYBLE_RSCS_CLIENT
 480:.\Generated_Source\PSoC4/BLE_1_eventHandler.c ****     if((cyBle_eventHandlerFlag & CYBLE_CALLBACK) != 0u)
 481:.\Generated_Source\PSoC4/BLE_1_eventHandler.c ****     {
 482:.\Generated_Source\PSoC4/BLE_1_eventHandler.c ****         CyBle_RscscWriteResponseEventHandler(eventParam);
 483:.\Generated_Source\PSoC4/BLE_1_eventHandler.c ****     }
 484:.\Generated_Source\PSoC4/BLE_1_eventHandler.c **** #endif /* CYBLE_RSCS_CLIENT */
 485:.\Generated_Source\PSoC4/BLE_1_eventHandler.c **** 
 486:.\Generated_Source\PSoC4/BLE_1_eventHandler.c **** #ifdef CYBLE_SCPS_CLIENT
 487:.\Generated_Source\PSoC4/BLE_1_eventHandler.c ****     if((cyBle_eventHandlerFlag & CYBLE_CALLBACK) != 0u)
 488:.\Generated_Source\PSoC4/BLE_1_eventHandler.c ****     {
 489:.\Generated_Source\PSoC4/BLE_1_eventHandler.c ****         CyBle_ScpscWriteResponseEventHandler(eventParam);
 490:.\Generated_Source\PSoC4/BLE_1_eventHandler.c ****     }
 491:.\Generated_Source\PSoC4/BLE_1_eventHandler.c **** #endif /* CYBLE_SCPS_CLIENT */
 492:.\Generated_Source\PSoC4/BLE_1_eventHandler.c **** 
 493:.\Generated_Source\PSoC4/BLE_1_eventHandler.c **** #ifdef CYBLE_TPS_CLIENT
 494:.\Generated_Source\PSoC4/BLE_1_eventHandler.c ****     if((cyBle_eventHandlerFlag & CYBLE_CALLBACK) != 0u)
 495:.\Generated_Source\PSoC4/BLE_1_eventHandler.c ****     {
 496:.\Generated_Source\PSoC4/BLE_1_eventHandler.c ****         CyBle_TpscWriteResponseEventHandler(eventParam);
 497:.\Generated_Source\PSoC4/BLE_1_eventHandler.c ****     }
 498:.\Generated_Source\PSoC4/BLE_1_eventHandler.c **** #endif /* CYBLE_TPS_CLIENT */
 499:.\Generated_Source\PSoC4/BLE_1_eventHandler.c **** }
 500:.\Generated_Source\PSoC4/BLE_1_eventHandler.c **** #endif /* (CYBLE_GATT_ROLE_CLIENT) */
 501:.\Generated_Source\PSoC4/BLE_1_eventHandler.c **** 
 502:.\Generated_Source\PSoC4/BLE_1_eventHandler.c **** 
 503:.\Generated_Source\PSoC4/BLE_1_eventHandler.c **** /****************************************************************************** 
 504:.\Generated_Source\PSoC4/BLE_1_eventHandler.c **** ##Function Name: CyBle_DisconnectEventHandler
 505:.\Generated_Source\PSoC4/BLE_1_eventHandler.c **** *******************************************************************************
 506:.\Generated_Source\PSoC4/BLE_1_eventHandler.c **** 
 507:.\Generated_Source\PSoC4/BLE_1_eventHandler.c **** Summary:
 508:.\Generated_Source\PSoC4/BLE_1_eventHandler.c ****  Handles the GATT Disconnection event from the BLE stack.
 509:.\Generated_Source\PSoC4/BLE_1_eventHandler.c **** 
 510:.\Generated_Source\PSoC4/BLE_1_eventHandler.c **** Parameters:
ARM GAS  C:\Users\mliha\AppData\Local\Temp\cc428Uxc.s 			page 13


 511:.\Generated_Source\PSoC4/BLE_1_eventHandler.c ****  None
 512:.\Generated_Source\PSoC4/BLE_1_eventHandler.c **** 
 513:.\Generated_Source\PSoC4/BLE_1_eventHandler.c **** Return:
 514:.\Generated_Source\PSoC4/BLE_1_eventHandler.c ****  None
 515:.\Generated_Source\PSoC4/BLE_1_eventHandler.c **** 
 516:.\Generated_Source\PSoC4/BLE_1_eventHandler.c **** ******************************************************************************/
 517:.\Generated_Source\PSoC4/BLE_1_eventHandler.c **** static void CyBle_GattDisconnectEventHandler(void)
 518:.\Generated_Source\PSoC4/BLE_1_eventHandler.c **** {
 175              		.loc 1 518 0
 176              		.cfi_startproc
 177 0000 80B5     		push	{r7, lr}
 178              		.cfi_def_cfa_offset 8
 179              		.cfi_offset 7, -8
 180              		.cfi_offset 14, -4
 181 0002 00AF     		add	r7, sp, #0
 182              		.cfi_def_cfa_register 7
 519:.\Generated_Source\PSoC4/BLE_1_eventHandler.c ****     cyBle_connHandle.attId = 0u;
 183              		.loc 1 519 0
 184 0004 034B     		ldr	r3, .L9
 185 0006 0022     		mov	r2, #0
 186 0008 5A70     		strb	r2, [r3, #1]
 520:.\Generated_Source\PSoC4/BLE_1_eventHandler.c ****     cyBle_connHandle.bdHandle = 0u;
 187              		.loc 1 520 0
 188 000a 024B     		ldr	r3, .L9
 189 000c 0022     		mov	r2, #0
 190 000e 1A70     		strb	r2, [r3]
 521:.\Generated_Source\PSoC4/BLE_1_eventHandler.c ****     
 522:.\Generated_Source\PSoC4/BLE_1_eventHandler.c ****     #if (CYBLE_GATT_ROLE_CLIENT)
 523:.\Generated_Source\PSoC4/BLE_1_eventHandler.c ****         if(CYBLE_CLIENT_STATE_DISCOVERED == CyBle_GetClientState())
 524:.\Generated_Source\PSoC4/BLE_1_eventHandler.c ****         {
 525:.\Generated_Source\PSoC4/BLE_1_eventHandler.c ****             CyBle_SetClientState(CYBLE_CLIENT_STATE_DISCONNECTED_DISCOVERED);
 526:.\Generated_Source\PSoC4/BLE_1_eventHandler.c ****         }
 527:.\Generated_Source\PSoC4/BLE_1_eventHandler.c ****         else
 528:.\Generated_Source\PSoC4/BLE_1_eventHandler.c ****         {
 529:.\Generated_Source\PSoC4/BLE_1_eventHandler.c ****             CyBle_SetClientState(CYBLE_CLIENT_STATE_DISCONNECTED);
 530:.\Generated_Source\PSoC4/BLE_1_eventHandler.c ****         }
 531:.\Generated_Source\PSoC4/BLE_1_eventHandler.c ****     #endif /* CYBLE_GATT_ROLE_CLIENT */
 532:.\Generated_Source\PSoC4/BLE_1_eventHandler.c ****         
 533:.\Generated_Source\PSoC4/BLE_1_eventHandler.c ****     #ifdef CYBLE_CPS_SERVER
 534:.\Generated_Source\PSoC4/BLE_1_eventHandler.c ****         #if CYBLE_GAP_ROLE_BROADCASTER
 535:.\Generated_Source\PSoC4/BLE_1_eventHandler.c ****             CyBle_CpssDisconnectEventHandler();
 536:.\Generated_Source\PSoC4/BLE_1_eventHandler.c ****         #endif /* CYBLE_GAP_ROLE_BROADCASTER */
 537:.\Generated_Source\PSoC4/BLE_1_eventHandler.c ****     #endif /* CYBLE_CPS_SERVER */
 538:.\Generated_Source\PSoC4/BLE_1_eventHandler.c **** 
 539:.\Generated_Source\PSoC4/BLE_1_eventHandler.c ****     #ifdef CYBLE_CPS_CLIENT
 540:.\Generated_Source\PSoC4/BLE_1_eventHandler.c ****         CyBle_CpscDisconnectEventHandler();
 541:.\Generated_Source\PSoC4/BLE_1_eventHandler.c ****     #endif /* CYBLE_CPS_CLIENT */
 542:.\Generated_Source\PSoC4/BLE_1_eventHandler.c **** 
 543:.\Generated_Source\PSoC4/BLE_1_eventHandler.c ****     #ifdef CYBLE_IAS_SERVER
 544:.\Generated_Source\PSoC4/BLE_1_eventHandler.c ****         CyBle_IassDisconnectEventHandler();
 545:.\Generated_Source\PSoC4/BLE_1_eventHandler.c ****     #endif /* CYBLE_IAS_SERVER */
 546:.\Generated_Source\PSoC4/BLE_1_eventHandler.c ****     
 547:.\Generated_Source\PSoC4/BLE_1_eventHandler.c ****     #ifdef CYBLE_GLS_SERVER
 548:.\Generated_Source\PSoC4/BLE_1_eventHandler.c ****         CyBle_GlsInit();
 549:.\Generated_Source\PSoC4/BLE_1_eventHandler.c ****     #endif /* CYBLE_GLS_SERVER */
 550:.\Generated_Source\PSoC4/BLE_1_eventHandler.c ****     
 551:.\Generated_Source\PSoC4/BLE_1_eventHandler.c ****     #ifdef CYBLE_LNS_SERVER
ARM GAS  C:\Users\mliha\AppData\Local\Temp\cc428Uxc.s 			page 14


 552:.\Generated_Source\PSoC4/BLE_1_eventHandler.c ****         CyBle_LnsInit();
 553:.\Generated_Source\PSoC4/BLE_1_eventHandler.c ****     #endif /* CYBLE_LNS_SERVER */
 554:.\Generated_Source\PSoC4/BLE_1_eventHandler.c **** }
 191              		.loc 1 554 0
 192 0010 BD46     		mov	sp, r7
 193              		@ sp needed
 194 0012 80BD     		pop	{r7, pc}
 195              	.L10:
 196              		.align	2
 197              	.L9:
 198 0014 00000000 		.word	cyBle_connHandle
 199              		.cfi_endproc
 200              	.LFE4:
 201              		.size	CyBle_GattDisconnectEventHandler, .-CyBle_GattDisconnectEventHandler
 202              		.section	.text.CyBle_TimeOutEventHandler,"ax",%progbits
 203              		.align	2
 204              		.code	16
 205              		.thumb_func
 206              		.type	CyBle_TimeOutEventHandler, %function
 207              	CyBle_TimeOutEventHandler:
 208              	.LFB5:
 555:.\Generated_Source\PSoC4/BLE_1_eventHandler.c **** 
 556:.\Generated_Source\PSoC4/BLE_1_eventHandler.c **** 
 557:.\Generated_Source\PSoC4/BLE_1_eventHandler.c **** /****************************************************************************** 
 558:.\Generated_Source\PSoC4/BLE_1_eventHandler.c **** ##Function Name: CyBle_TimeOutEventHandler
 559:.\Generated_Source\PSoC4/BLE_1_eventHandler.c **** *******************************************************************************
 560:.\Generated_Source\PSoC4/BLE_1_eventHandler.c **** 
 561:.\Generated_Source\PSoC4/BLE_1_eventHandler.c **** Summary:
 562:.\Generated_Source\PSoC4/BLE_1_eventHandler.c ****  Handles the CYBLE_EVT_TIMEOUT event from the BLE stack.
 563:.\Generated_Source\PSoC4/BLE_1_eventHandler.c **** 
 564:.\Generated_Source\PSoC4/BLE_1_eventHandler.c **** Parameters:
 565:.\Generated_Source\PSoC4/BLE_1_eventHandler.c ****  *eventParam - The pointer to a structure of type CYBLE_TO_REASON_CODE_T.
 566:.\Generated_Source\PSoC4/BLE_1_eventHandler.c **** 
 567:.\Generated_Source\PSoC4/BLE_1_eventHandler.c **** Return:
 568:.\Generated_Source\PSoC4/BLE_1_eventHandler.c ****  None
 569:.\Generated_Source\PSoC4/BLE_1_eventHandler.c **** 
 570:.\Generated_Source\PSoC4/BLE_1_eventHandler.c **** ******************************************************************************/
 571:.\Generated_Source\PSoC4/BLE_1_eventHandler.c **** static void CyBle_TimeOutEventHandler(const CYBLE_TO_REASON_CODE_T *eventParam)
 572:.\Generated_Source\PSoC4/BLE_1_eventHandler.c **** {
 209              		.loc 1 572 0
 210              		.cfi_startproc
 211 0000 80B5     		push	{r7, lr}
 212              		.cfi_def_cfa_offset 8
 213              		.cfi_offset 7, -8
 214              		.cfi_offset 14, -4
 215 0002 82B0     		sub	sp, sp, #8
 216              		.cfi_def_cfa_offset 16
 217 0004 00AF     		add	r7, sp, #0
 218              		.cfi_def_cfa_register 7
 219 0006 7860     		str	r0, [r7, #4]
 573:.\Generated_Source\PSoC4/BLE_1_eventHandler.c ****     if(*eventParam == CYBLE_GATT_RSP_TO)
 574:.\Generated_Source\PSoC4/BLE_1_eventHandler.c ****     {
 575:.\Generated_Source\PSoC4/BLE_1_eventHandler.c ****     #if (CYBLE_GATT_ROLE_CLIENT)
 576:.\Generated_Source\PSoC4/BLE_1_eventHandler.c ****         if(0u != (cyBle_eventHandlerFlag & CYBLE_AUTO_DISCOVERY))
 577:.\Generated_Source\PSoC4/BLE_1_eventHandler.c ****         {
 578:.\Generated_Source\PSoC4/BLE_1_eventHandler.c ****             switch(CyBle_GetClientState())
 579:.\Generated_Source\PSoC4/BLE_1_eventHandler.c ****             {
ARM GAS  C:\Users\mliha\AppData\Local\Temp\cc428Uxc.s 			page 15


 580:.\Generated_Source\PSoC4/BLE_1_eventHandler.c ****                 case CYBLE_CLIENT_STATE_SRVC_DISCOVERING:
 581:.\Generated_Source\PSoC4/BLE_1_eventHandler.c ****                     CyBle_ApplCallback(CYBLE_EVT_GATTC_SRVC_DISCOVERY_FAILED, NULL);
 582:.\Generated_Source\PSoC4/BLE_1_eventHandler.c ****                     break;
 583:.\Generated_Source\PSoC4/BLE_1_eventHandler.c ****                 case CYBLE_CLIENT_STATE_INCL_DISCOVERING:
 584:.\Generated_Source\PSoC4/BLE_1_eventHandler.c ****                     CyBle_ApplCallback(CYBLE_EVT_GATTC_INCL_DISCOVERY_FAILED, NULL);
 585:.\Generated_Source\PSoC4/BLE_1_eventHandler.c ****                     break;
 586:.\Generated_Source\PSoC4/BLE_1_eventHandler.c ****                 case CYBLE_CLIENT_STATE_CHAR_DISCOVERING:
 587:.\Generated_Source\PSoC4/BLE_1_eventHandler.c ****                     CyBle_ApplCallback(CYBLE_EVT_GATTC_CHAR_DISCOVERY_FAILED, NULL);
 588:.\Generated_Source\PSoC4/BLE_1_eventHandler.c ****                     break;
 589:.\Generated_Source\PSoC4/BLE_1_eventHandler.c ****                 case CYBLE_CLIENT_STATE_DESCR_DISCOVERING:
 590:.\Generated_Source\PSoC4/BLE_1_eventHandler.c ****                     CyBle_ApplCallback(CYBLE_EVT_GATTC_DESCR_DISCOVERY_FAILED, NULL);
 591:.\Generated_Source\PSoC4/BLE_1_eventHandler.c ****                     break;
 592:.\Generated_Source\PSoC4/BLE_1_eventHandler.c ****                 default:        /* Other states should not be set in Auto discovery mode */
 593:.\Generated_Source\PSoC4/BLE_1_eventHandler.c ****                     break;
 594:.\Generated_Source\PSoC4/BLE_1_eventHandler.c ****             }
 595:.\Generated_Source\PSoC4/BLE_1_eventHandler.c ****             cyBle_eventHandlerFlag &= (uint8)~CYBLE_AUTO_DISCOVERY;
 596:.\Generated_Source\PSoC4/BLE_1_eventHandler.c ****             CyBle_SetClientState(CYBLE_CLIENT_STATE_CONNECTED);
 597:.\Generated_Source\PSoC4/BLE_1_eventHandler.c ****         }
 598:.\Generated_Source\PSoC4/BLE_1_eventHandler.c ****     #endif /* CYBLE_GATT_ROLE_CLIENT */
 599:.\Generated_Source\PSoC4/BLE_1_eventHandler.c ****     #ifdef CYBLE_CPS_SERVER
 600:.\Generated_Source\PSoC4/BLE_1_eventHandler.c ****         CyBle_CpssTimeOutEventHandler();
 601:.\Generated_Source\PSoC4/BLE_1_eventHandler.c ****     #endif /* CYBLE_CPS_SERVER */
 602:.\Generated_Source\PSoC4/BLE_1_eventHandler.c ****     }
 603:.\Generated_Source\PSoC4/BLE_1_eventHandler.c ****     
 604:.\Generated_Source\PSoC4/BLE_1_eventHandler.c ****     /* Connection procedure timeout */
 605:.\Generated_Source\PSoC4/BLE_1_eventHandler.c ****     if(*eventParam == CYBLE_GENERIC_TO)
 606:.\Generated_Source\PSoC4/BLE_1_eventHandler.c ****     {
 607:.\Generated_Source\PSoC4/BLE_1_eventHandler.c ****     #if(CYBLE_GAP_ROLE_CENTRAL)
 608:.\Generated_Source\PSoC4/BLE_1_eventHandler.c ****         if(CYBLE_STATE_CONNECTING == CyBle_GetState())
 609:.\Generated_Source\PSoC4/BLE_1_eventHandler.c ****         {
 610:.\Generated_Source\PSoC4/BLE_1_eventHandler.c ****             (void)CyBle_GapcCancelDeviceConnection();
 611:.\Generated_Source\PSoC4/BLE_1_eventHandler.c ****         }
 612:.\Generated_Source\PSoC4/BLE_1_eventHandler.c ****     #endif /* CYBLE_GAP_ROLE_CENTRAL */
 613:.\Generated_Source\PSoC4/BLE_1_eventHandler.c ****     }
 614:.\Generated_Source\PSoC4/BLE_1_eventHandler.c **** }
 220              		.loc 1 614 0
 221 0008 BD46     		mov	sp, r7
 222 000a 02B0     		add	sp, sp, #8
 223              		@ sp needed
 224 000c 80BD     		pop	{r7, pc}
 225              		.cfi_endproc
 226              	.LFE5:
 227              		.size	CyBle_TimeOutEventHandler, .-CyBle_TimeOutEventHandler
 228              		.section	.text.CyBle_GattConnectReqHandler,"ax",%progbits
 229              		.align	2
 230              		.code	16
 231              		.thumb_func
 232              		.type	CyBle_GattConnectReqHandler, %function
 233              	CyBle_GattConnectReqHandler:
 234              	.LFB6:
 615:.\Generated_Source\PSoC4/BLE_1_eventHandler.c **** 
 616:.\Generated_Source\PSoC4/BLE_1_eventHandler.c **** 
 617:.\Generated_Source\PSoC4/BLE_1_eventHandler.c **** /****************************************************************************** 
 618:.\Generated_Source\PSoC4/BLE_1_eventHandler.c **** ##Function Name: CyBle_GattConnectReqHandler
 619:.\Generated_Source\PSoC4/BLE_1_eventHandler.c **** *******************************************************************************
 620:.\Generated_Source\PSoC4/BLE_1_eventHandler.c **** 
 621:.\Generated_Source\PSoC4/BLE_1_eventHandler.c **** Summary:
ARM GAS  C:\Users\mliha\AppData\Local\Temp\cc428Uxc.s 			page 16


 622:.\Generated_Source\PSoC4/BLE_1_eventHandler.c ****  Handles the GATT connect event from the BLE stack.
 623:.\Generated_Source\PSoC4/BLE_1_eventHandler.c **** 
 624:.\Generated_Source\PSoC4/BLE_1_eventHandler.c **** Parameters:
 625:.\Generated_Source\PSoC4/BLE_1_eventHandler.c ****  None
 626:.\Generated_Source\PSoC4/BLE_1_eventHandler.c **** 
 627:.\Generated_Source\PSoC4/BLE_1_eventHandler.c **** Return:
 628:.\Generated_Source\PSoC4/BLE_1_eventHandler.c ****  None
 629:.\Generated_Source\PSoC4/BLE_1_eventHandler.c **** 
 630:.\Generated_Source\PSoC4/BLE_1_eventHandler.c **** ******************************************************************************/
 631:.\Generated_Source\PSoC4/BLE_1_eventHandler.c **** static void CyBle_GattConnectReqHandler(void)
 632:.\Generated_Source\PSoC4/BLE_1_eventHandler.c **** {
 235              		.loc 1 632 0
 236              		.cfi_startproc
 237 0000 80B5     		push	{r7, lr}
 238              		.cfi_def_cfa_offset 8
 239              		.cfi_offset 7, -8
 240              		.cfi_offset 14, -4
 241 0002 00AF     		add	r7, sp, #0
 242              		.cfi_def_cfa_register 7
 633:.\Generated_Source\PSoC4/BLE_1_eventHandler.c ****     #ifdef CYBLE_CPS_SERVER
 634:.\Generated_Source\PSoC4/BLE_1_eventHandler.c ****         CyBle_CpssConnectEventHandler();
 635:.\Generated_Source\PSoC4/BLE_1_eventHandler.c ****     #endif /* CYBLE_CPS_SERVER */
 636:.\Generated_Source\PSoC4/BLE_1_eventHandler.c ****     
 637:.\Generated_Source\PSoC4/BLE_1_eventHandler.c ****     #ifdef CYBLE_CSCS_SERVER
 638:.\Generated_Source\PSoC4/BLE_1_eventHandler.c ****             CyBle_CscsInit();
 639:.\Generated_Source\PSoC4/BLE_1_eventHandler.c ****     #endif /* CYBLE_CSCS_SERVER */
 640:.\Generated_Source\PSoC4/BLE_1_eventHandler.c ****     
 641:.\Generated_Source\PSoC4/BLE_1_eventHandler.c ****     #ifdef CYBLE_LLS_SERVER
 642:.\Generated_Source\PSoC4/BLE_1_eventHandler.c ****         CyBle_LlssConnectEventHandler();
 643:.\Generated_Source\PSoC4/BLE_1_eventHandler.c ****     #endif /* CYBLE_LLS_SERVER */
 644:.\Generated_Source\PSoC4/BLE_1_eventHandler.c ****     
 645:.\Generated_Source\PSoC4/BLE_1_eventHandler.c ****     #ifdef CYBLE_HIDS_SERVER
 646:.\Generated_Source\PSoC4/BLE_1_eventHandler.c ****         CyBle_HidssOnDeviceConnected();
 647:.\Generated_Source\PSoC4/BLE_1_eventHandler.c ****     #endif /* CYBLE_HIDS_SERVER */
 648:.\Generated_Source\PSoC4/BLE_1_eventHandler.c **** 
 649:.\Generated_Source\PSoC4/BLE_1_eventHandler.c ****     #ifdef CYBLE_RSCS_SERVER
 650:.\Generated_Source\PSoC4/BLE_1_eventHandler.c ****             CyBle_RscsInit();
 651:.\Generated_Source\PSoC4/BLE_1_eventHandler.c ****     #endif /* CYBLE_RSCS_SERVER */
 652:.\Generated_Source\PSoC4/BLE_1_eventHandler.c **** }
 243              		.loc 1 652 0
 244 0004 BD46     		mov	sp, r7
 245              		@ sp needed
 246 0006 80BD     		pop	{r7, pc}
 247              		.cfi_endproc
 248              	.LFE6:
 249              		.size	CyBle_GattConnectReqHandler, .-CyBle_GattConnectReqHandler
 250              		.section	.text.CyBle_IsDeviceAddressValid,"ax",%progbits
 251              		.align	2
 252              		.code	16
 253              		.thumb_func
 254              		.type	CyBle_IsDeviceAddressValid, %function
 255              	CyBle_IsDeviceAddressValid:
 256              	.LFB7:
 653:.\Generated_Source\PSoC4/BLE_1_eventHandler.c **** 
 654:.\Generated_Source\PSoC4/BLE_1_eventHandler.c **** 
 655:.\Generated_Source\PSoC4/BLE_1_eventHandler.c **** #if (CYBLE_GATT_ROLE_SERVER || CYBLE_GATT_ROLE_CLIENT)
 656:.\Generated_Source\PSoC4/BLE_1_eventHandler.c **** 
ARM GAS  C:\Users\mliha\AppData\Local\Temp\cc428Uxc.s 			page 17


 657:.\Generated_Source\PSoC4/BLE_1_eventHandler.c **** /****************************************************************************** 
 658:.\Generated_Source\PSoC4/BLE_1_eventHandler.c **** ##Function Name: CyBle_IsDeviceAddressValid
 659:.\Generated_Source\PSoC4/BLE_1_eventHandler.c **** *******************************************************************************
 660:.\Generated_Source\PSoC4/BLE_1_eventHandler.c **** 
 661:.\Generated_Source\PSoC4/BLE_1_eventHandler.c **** Summary:
 662:.\Generated_Source\PSoC4/BLE_1_eventHandler.c ****  This function verifies that BLE public address has been programmed to SFLASH 
 663:.\Generated_Source\PSoC4/BLE_1_eventHandler.c ****  during manufacture.
 664:.\Generated_Source\PSoC4/BLE_1_eventHandler.c **** 
 665:.\Generated_Source\PSoC4/BLE_1_eventHandler.c **** Parameters:
 666:.\Generated_Source\PSoC4/BLE_1_eventHandler.c ****  CYBLE_GAP_BD_ADDR_T *sflashDeviceAddress: the pointer to the BD address of 
 667:.\Generated_Source\PSoC4/BLE_1_eventHandler.c ****                                            type CYBLE_GAP_BD_ADDR_T. 
 668:.\Generated_Source\PSoC4/BLE_1_eventHandler.c **** 
 669:.\Generated_Source\PSoC4/BLE_1_eventHandler.c **** Return:
 670:.\Generated_Source\PSoC4/BLE_1_eventHandler.c ****  Non zero value when a device address differs from the default SFLASH content.
 671:.\Generated_Source\PSoC4/BLE_1_eventHandler.c **** 
 672:.\Generated_Source\PSoC4/BLE_1_eventHandler.c **** ******************************************************************************/
 673:.\Generated_Source\PSoC4/BLE_1_eventHandler.c **** static uint8 CyBle_IsDeviceAddressValid(const CYBLE_GAP_BD_ADDR_T *sflashDeviceAddress)
 674:.\Generated_Source\PSoC4/BLE_1_eventHandler.c **** {
 257              		.loc 1 674 0
 258              		.cfi_startproc
 259 0000 80B5     		push	{r7, lr}
 260              		.cfi_def_cfa_offset 8
 261              		.cfi_offset 7, -8
 262              		.cfi_offset 14, -4
 263 0002 84B0     		sub	sp, sp, #16
 264              		.cfi_def_cfa_offset 24
 265 0004 00AF     		add	r7, sp, #0
 266              		.cfi_def_cfa_register 7
 267 0006 7860     		str	r0, [r7, #4]
 675:.\Generated_Source\PSoC4/BLE_1_eventHandler.c ****     uint8 i;
 676:.\Generated_Source\PSoC4/BLE_1_eventHandler.c ****     uint8 sflashAddressValid = 0u;
 268              		.loc 1 676 0
 269 0008 3B1C     		mov	r3, r7
 270 000a 0E33     		add	r3, r3, #14
 271 000c 0022     		mov	r2, #0
 272 000e 1A70     		strb	r2, [r3]
 677:.\Generated_Source\PSoC4/BLE_1_eventHandler.c ****     
 678:.\Generated_Source\PSoC4/BLE_1_eventHandler.c ****     if(sflashDeviceAddress -> type == CYBLE_GAP_ADDR_TYPE_PUBLIC)  
 273              		.loc 1 678 0
 274 0010 7B68     		ldr	r3, [r7, #4]
 275 0012 9B79     		ldrb	r3, [r3, #6]
 276 0014 002B     		cmp	r3, #0
 277 0016 1CD1     		bne	.L14
 679:.\Generated_Source\PSoC4/BLE_1_eventHandler.c ****     {
 680:.\Generated_Source\PSoC4/BLE_1_eventHandler.c ****         for(i = 0u; i < CYBLE_GAP_BD_ADDR_SIZE; i++)
 278              		.loc 1 680 0
 279 0018 3B1C     		mov	r3, r7
 280 001a 0F33     		add	r3, r3, #15
 281 001c 0022     		mov	r2, #0
 282 001e 1A70     		strb	r2, [r3]
 283 0020 12E0     		b	.L15
 284              	.L17:
 681:.\Generated_Source\PSoC4/BLE_1_eventHandler.c ****         {
 682:.\Generated_Source\PSoC4/BLE_1_eventHandler.c ****             if(sflashDeviceAddress->bdAddr[i] != 0u)
 285              		.loc 1 682 0
 286 0022 3B1C     		mov	r3, r7
 287 0024 0F33     		add	r3, r3, #15
ARM GAS  C:\Users\mliha\AppData\Local\Temp\cc428Uxc.s 			page 18


 288 0026 1B78     		ldrb	r3, [r3]
 289 0028 7A68     		ldr	r2, [r7, #4]
 290 002a D35C     		ldrb	r3, [r2, r3]
 291 002c 002B     		cmp	r3, #0
 292 002e 04D0     		beq	.L16
 683:.\Generated_Source\PSoC4/BLE_1_eventHandler.c ****             {
 684:.\Generated_Source\PSoC4/BLE_1_eventHandler.c ****                 sflashAddressValid = 1u;
 293              		.loc 1 684 0
 294 0030 3B1C     		mov	r3, r7
 295 0032 0E33     		add	r3, r3, #14
 296 0034 0122     		mov	r2, #1
 297 0036 1A70     		strb	r2, [r3]
 685:.\Generated_Source\PSoC4/BLE_1_eventHandler.c ****                 break;
 298              		.loc 1 685 0
 299 0038 0BE0     		b	.L14
 300              	.L16:
 680:.\Generated_Source\PSoC4/BLE_1_eventHandler.c ****         for(i = 0u; i < CYBLE_GAP_BD_ADDR_SIZE; i++)
 301              		.loc 1 680 0
 302 003a 3B1C     		mov	r3, r7
 303 003c 0F33     		add	r3, r3, #15
 304 003e 1A78     		ldrb	r2, [r3]
 305 0040 3B1C     		mov	r3, r7
 306 0042 0F33     		add	r3, r3, #15
 307 0044 0132     		add	r2, r2, #1
 308 0046 1A70     		strb	r2, [r3]
 309              	.L15:
 680:.\Generated_Source\PSoC4/BLE_1_eventHandler.c ****         for(i = 0u; i < CYBLE_GAP_BD_ADDR_SIZE; i++)
 310              		.loc 1 680 0 is_stmt 0 discriminator 1
 311 0048 3B1C     		mov	r3, r7
 312 004a 0F33     		add	r3, r3, #15
 313 004c 1B78     		ldrb	r3, [r3]
 314 004e 052B     		cmp	r3, #5
 315 0050 E7D9     		bls	.L17
 316              	.L14:
 686:.\Generated_Source\PSoC4/BLE_1_eventHandler.c ****             }
 687:.\Generated_Source\PSoC4/BLE_1_eventHandler.c ****         }
 688:.\Generated_Source\PSoC4/BLE_1_eventHandler.c ****     }
 689:.\Generated_Source\PSoC4/BLE_1_eventHandler.c ****     return (sflashAddressValid);
 317              		.loc 1 689 0 is_stmt 1
 318 0052 3B1C     		mov	r3, r7
 319 0054 0E33     		add	r3, r3, #14
 320 0056 1B78     		ldrb	r3, [r3]
 690:.\Generated_Source\PSoC4/BLE_1_eventHandler.c **** }
 321              		.loc 1 690 0
 322 0058 181C     		mov	r0, r3
 323 005a BD46     		mov	sp, r7
 324 005c 04B0     		add	sp, sp, #16
 325              		@ sp needed
 326 005e 80BD     		pop	{r7, pc}
 327              		.cfi_endproc
 328              	.LFE7:
 329              		.size	CyBle_IsDeviceAddressValid, .-CyBle_IsDeviceAddressValid
 330              		.section	.text.CyBle_L2Cap_ConnParamUpdateRspEventHandler,"ax",%progbits
 331              		.align	2
 332              		.code	16
 333              		.thumb_func
 334              		.type	CyBle_L2Cap_ConnParamUpdateRspEventHandler, %function
ARM GAS  C:\Users\mliha\AppData\Local\Temp\cc428Uxc.s 			page 19


 335              	CyBle_L2Cap_ConnParamUpdateRspEventHandler:
 336              	.LFB8:
 691:.\Generated_Source\PSoC4/BLE_1_eventHandler.c **** #endif /* (CYBLE_GATT_ROLE_SERVER || CYBLE_GATT_ROLE_CLIENT) */
 692:.\Generated_Source\PSoC4/BLE_1_eventHandler.c **** 
 693:.\Generated_Source\PSoC4/BLE_1_eventHandler.c **** 
 694:.\Generated_Source\PSoC4/BLE_1_eventHandler.c **** /****************************************************************************** 
 695:.\Generated_Source\PSoC4/BLE_1_eventHandler.c **** ##Function Name: CyBle_L2Cap_ConnParamUpdateRspHandler
 696:.\Generated_Source\PSoC4/BLE_1_eventHandler.c **** *******************************************************************************
 697:.\Generated_Source\PSoC4/BLE_1_eventHandler.c **** 
 698:.\Generated_Source\PSoC4/BLE_1_eventHandler.c **** Summary:
 699:.\Generated_Source\PSoC4/BLE_1_eventHandler.c ****  Handles the L2CAP connection parameter response event from
 700:.\Generated_Source\PSoC4/BLE_1_eventHandler.c ****  the BLE stack.
 701:.\Generated_Source\PSoC4/BLE_1_eventHandler.c **** 
 702:.\Generated_Source\PSoC4/BLE_1_eventHandler.c **** Parameters:
 703:.\Generated_Source\PSoC4/BLE_1_eventHandler.c ****  uint16 response:
 704:.\Generated_Source\PSoC4/BLE_1_eventHandler.c ****      * Accepted = 0x0000
 705:.\Generated_Source\PSoC4/BLE_1_eventHandler.c ****      * Rejected = 0x0001
 706:.\Generated_Source\PSoC4/BLE_1_eventHandler.c **** 
 707:.\Generated_Source\PSoC4/BLE_1_eventHandler.c **** Return:
 708:.\Generated_Source\PSoC4/BLE_1_eventHandler.c ****  None
 709:.\Generated_Source\PSoC4/BLE_1_eventHandler.c **** 
 710:.\Generated_Source\PSoC4/BLE_1_eventHandler.c **** ******************************************************************************/
 711:.\Generated_Source\PSoC4/BLE_1_eventHandler.c **** static void CyBle_L2Cap_ConnParamUpdateRspEventHandler(uint16 response)
 712:.\Generated_Source\PSoC4/BLE_1_eventHandler.c **** {
 337              		.loc 1 712 0
 338              		.cfi_startproc
 339 0000 80B5     		push	{r7, lr}
 340              		.cfi_def_cfa_offset 8
 341              		.cfi_offset 7, -8
 342              		.cfi_offset 14, -4
 343 0002 82B0     		sub	sp, sp, #8
 344              		.cfi_def_cfa_offset 16
 345 0004 00AF     		add	r7, sp, #0
 346              		.cfi_def_cfa_register 7
 347 0006 021C     		mov	r2, r0
 348 0008 BB1D     		add	r3, r7, #6
 349 000a 1A80     		strh	r2, [r3]
 713:.\Generated_Source\PSoC4/BLE_1_eventHandler.c ****     #ifdef CYBLE_CPS_SERVER
 714:.\Generated_Source\PSoC4/BLE_1_eventHandler.c ****         CyBle_CpssConnParamUpdateRspEventHandler(response);
 715:.\Generated_Source\PSoC4/BLE_1_eventHandler.c ****     #endif /* CYBLE_CPS_SERVER */
 716:.\Generated_Source\PSoC4/BLE_1_eventHandler.c ****     
 717:.\Generated_Source\PSoC4/BLE_1_eventHandler.c ****     /* Unreferenced variable warning workaround */
 718:.\Generated_Source\PSoC4/BLE_1_eventHandler.c ****     if(response != 0u)
 719:.\Generated_Source\PSoC4/BLE_1_eventHandler.c ****     {
 720:.\Generated_Source\PSoC4/BLE_1_eventHandler.c ****     }
 721:.\Generated_Source\PSoC4/BLE_1_eventHandler.c **** }
 350              		.loc 1 721 0
 351 000c BD46     		mov	sp, r7
 352 000e 02B0     		add	sp, sp, #8
 353              		@ sp needed
 354 0010 80BD     		pop	{r7, pc}
 355              		.cfi_endproc
 356              	.LFE8:
 357              		.size	CyBle_L2Cap_ConnParamUpdateRspEventHandler, .-CyBle_L2Cap_ConnParamUpdateRspEventHandler
 358 0012 C046     		.section	.text.CyBle_GapConnUpdateCompleteEventHandler,"ax",%progbits
 359              		.align	2
 360              		.code	16
ARM GAS  C:\Users\mliha\AppData\Local\Temp\cc428Uxc.s 			page 20


 361              		.thumb_func
 362              		.type	CyBle_GapConnUpdateCompleteEventHandler, %function
 363              	CyBle_GapConnUpdateCompleteEventHandler:
 364              	.LFB9:
 722:.\Generated_Source\PSoC4/BLE_1_eventHandler.c **** 
 723:.\Generated_Source\PSoC4/BLE_1_eventHandler.c **** 
 724:.\Generated_Source\PSoC4/BLE_1_eventHandler.c **** /****************************************************************************** 
 725:.\Generated_Source\PSoC4/BLE_1_eventHandler.c **** ##Function Name: CyBle_GapConnUpdateCompleteEventHandler
 726:.\Generated_Source\PSoC4/BLE_1_eventHandler.c **** *******************************************************************************
 727:.\Generated_Source\PSoC4/BLE_1_eventHandler.c **** 
 728:.\Generated_Source\PSoC4/BLE_1_eventHandler.c **** Summary:
 729:.\Generated_Source\PSoC4/BLE_1_eventHandler.c ****  Handles the CYBLE_EVT_GAP_CONNECTION_UPDATE_COMPLETE event from
 730:.\Generated_Source\PSoC4/BLE_1_eventHandler.c ****  the BLE stack.
 731:.\Generated_Source\PSoC4/BLE_1_eventHandler.c **** 
 732:.\Generated_Source\PSoC4/BLE_1_eventHandler.c **** Parameters:
 733:.\Generated_Source\PSoC4/BLE_1_eventHandler.c ****  *eventParam: The pointer to the data structure specified by the event.
 734:.\Generated_Source\PSoC4/BLE_1_eventHandler.c **** 
 735:.\Generated_Source\PSoC4/BLE_1_eventHandler.c **** Return:
 736:.\Generated_Source\PSoC4/BLE_1_eventHandler.c ****  None
 737:.\Generated_Source\PSoC4/BLE_1_eventHandler.c **** 
 738:.\Generated_Source\PSoC4/BLE_1_eventHandler.c **** ******************************************************************************/
 739:.\Generated_Source\PSoC4/BLE_1_eventHandler.c **** static void CyBle_GapConnUpdateCompleteEventHandler(const CYBLE_GAP_CONN_PARAM_UPDATED_IN_CONTROLLE
 740:.\Generated_Source\PSoC4/BLE_1_eventHandler.c **** {
 365              		.loc 1 740 0
 366              		.cfi_startproc
 367 0000 80B5     		push	{r7, lr}
 368              		.cfi_def_cfa_offset 8
 369              		.cfi_offset 7, -8
 370              		.cfi_offset 14, -4
 371 0002 82B0     		sub	sp, sp, #8
 372              		.cfi_def_cfa_offset 16
 373 0004 00AF     		add	r7, sp, #0
 374              		.cfi_def_cfa_register 7
 375 0006 7860     		str	r0, [r7, #4]
 741:.\Generated_Source\PSoC4/BLE_1_eventHandler.c ****     #ifdef CYBLE_CPS_SERVER
 742:.\Generated_Source\PSoC4/BLE_1_eventHandler.c ****         CyBle_CpssConnUpdateCompleteEventHandler(eventParam);
 743:.\Generated_Source\PSoC4/BLE_1_eventHandler.c ****     #endif /* CYBLE_CPS_SERVER */
 744:.\Generated_Source\PSoC4/BLE_1_eventHandler.c ****     
 745:.\Generated_Source\PSoC4/BLE_1_eventHandler.c ****     /* Unreferenced variable warning workaround */
 746:.\Generated_Source\PSoC4/BLE_1_eventHandler.c ****     if(eventParam != 0u)
 747:.\Generated_Source\PSoC4/BLE_1_eventHandler.c ****     {
 748:.\Generated_Source\PSoC4/BLE_1_eventHandler.c ****     }
 749:.\Generated_Source\PSoC4/BLE_1_eventHandler.c **** }
 376              		.loc 1 749 0
 377 0008 BD46     		mov	sp, r7
 378 000a 02B0     		add	sp, sp, #8
 379              		@ sp needed
 380 000c 80BD     		pop	{r7, pc}
 381              		.cfi_endproc
 382              	.LFE9:
 383              		.size	CyBle_GapConnUpdateCompleteEventHandler, .-CyBle_GapConnUpdateCompleteEventHandler
 384              		.section	.text.CyBle_EventHandler,"ax",%progbits
 385              		.align	2
 386              		.global	CyBle_EventHandler
 387              		.code	16
 388              		.thumb_func
 389              		.type	CyBle_EventHandler, %function
ARM GAS  C:\Users\mliha\AppData\Local\Temp\cc428Uxc.s 			page 21


 390              	CyBle_EventHandler:
 391              	.LFB10:
 750:.\Generated_Source\PSoC4/BLE_1_eventHandler.c **** 
 751:.\Generated_Source\PSoC4/BLE_1_eventHandler.c **** 
 752:.\Generated_Source\PSoC4/BLE_1_eventHandler.c **** /****************************************************************************** 
 753:.\Generated_Source\PSoC4/BLE_1_eventHandler.c **** ##Function Name: CyBle_EventHandler
 754:.\Generated_Source\PSoC4/BLE_1_eventHandler.c **** *******************************************************************************
 755:.\Generated_Source\PSoC4/BLE_1_eventHandler.c **** 
 756:.\Generated_Source\PSoC4/BLE_1_eventHandler.c **** Summary:
 757:.\Generated_Source\PSoC4/BLE_1_eventHandler.c ****  Handles the events from the BLE stack
 758:.\Generated_Source\PSoC4/BLE_1_eventHandler.c **** 
 759:.\Generated_Source\PSoC4/BLE_1_eventHandler.c **** Parameters:
 760:.\Generated_Source\PSoC4/BLE_1_eventHandler.c ****  eventCode:    the event code
 761:.\Generated_Source\PSoC4/BLE_1_eventHandler.c ****  *eventParam:  the event parameters
 762:.\Generated_Source\PSoC4/BLE_1_eventHandler.c **** 
 763:.\Generated_Source\PSoC4/BLE_1_eventHandler.c **** Return:
 764:.\Generated_Source\PSoC4/BLE_1_eventHandler.c ****  None.
 765:.\Generated_Source\PSoC4/BLE_1_eventHandler.c **** 
 766:.\Generated_Source\PSoC4/BLE_1_eventHandler.c **** ******************************************************************************/
 767:.\Generated_Source\PSoC4/BLE_1_eventHandler.c **** void CyBle_EventHandler(uint8 eventCode, void *eventParam)
 768:.\Generated_Source\PSoC4/BLE_1_eventHandler.c **** {
 392              		.loc 1 768 0
 393              		.cfi_startproc
 394 0000 80B5     		push	{r7, lr}
 395              		.cfi_def_cfa_offset 8
 396              		.cfi_offset 7, -8
 397              		.cfi_offset 14, -4
 398 0002 84B0     		sub	sp, sp, #16
 399              		.cfi_def_cfa_offset 24
 400 0004 00AF     		add	r7, sp, #0
 401              		.cfi_def_cfa_register 7
 402 0006 021C     		mov	r2, r0
 403 0008 3960     		str	r1, [r7]
 404 000a FB1D     		add	r3, r7, #7
 405 000c 1A70     		strb	r2, [r3]
 769:.\Generated_Source\PSoC4/BLE_1_eventHandler.c ****     cyBle_eventHandlerFlag |= CYBLE_CALLBACK;
 406              		.loc 1 769 0
 407 000e 904B     		ldr	r3, .L51
 408 0010 1B78     		ldrb	r3, [r3]
 409 0012 DBB2     		uxtb	r3, r3
 410 0014 0122     		mov	r2, #1
 411 0016 1343     		orr	r3, r2
 412 0018 DAB2     		uxtb	r2, r3
 413 001a 8D4B     		ldr	r3, .L51
 414 001c 1A70     		strb	r2, [r3]
 770:.\Generated_Source\PSoC4/BLE_1_eventHandler.c **** 
 771:.\Generated_Source\PSoC4/BLE_1_eventHandler.c ****     /* Common Profile event handling */
 772:.\Generated_Source\PSoC4/BLE_1_eventHandler.c ****     switch(eventCode)
 415              		.loc 1 772 0
 416 001e FB1D     		add	r3, r7, #7
 417 0020 1B78     		ldrb	r3, [r3]
 418 0022 712B     		cmp	r3, #113
 419 0024 00D9     		bls	.LCB347
 420 0026 F7E0     		b	.L50	@long jump
 421              	.LCB347:
 422 0028 9A00     		lsl	r2, r3, #2
 423 002a 8A4B     		ldr	r3, .L51+4
ARM GAS  C:\Users\mliha\AppData\Local\Temp\cc428Uxc.s 			page 22


 424 002c D318     		add	r3, r2, r3
 425 002e 1B68     		ldr	r3, [r3]
 426 0030 9F46     		mov	pc, r3
 427              		.section	.rodata
 428              		.align	2
 429              	.L24:
 430 0000 18020000 		.word	.L50
 431 0004 32000000 		.word	.L23
 432 0008 A8000000 		.word	.L25
 433 000c 18020000 		.word	.L50
 434 0010 18020000 		.word	.L50
 435 0014 B2000000 		.word	.L26
 436 0018 18020000 		.word	.L50
 437 001c 18020000 		.word	.L50
 438 0020 18020000 		.word	.L50
 439 0024 18020000 		.word	.L50
 440 0028 18020000 		.word	.L50
 441 002c 18020000 		.word	.L50
 442 0030 18020000 		.word	.L50
 443 0034 18020000 		.word	.L50
 444 0038 18020000 		.word	.L50
 445 003c 18020000 		.word	.L50
 446 0040 18020000 		.word	.L50
 447 0044 18020000 		.word	.L50
 448 0048 18020000 		.word	.L50
 449 004c 18020000 		.word	.L50
 450 0050 18020000 		.word	.L50
 451 0054 18020000 		.word	.L50
 452 0058 18020000 		.word	.L50
 453 005c 18020000 		.word	.L50
 454 0060 18020000 		.word	.L50
 455 0064 18020000 		.word	.L50
 456 0068 18020000 		.word	.L50
 457 006c 18020000 		.word	.L50
 458 0070 18020000 		.word	.L50
 459 0074 18020000 		.word	.L50
 460 0078 18020000 		.word	.L50
 461 007c 18020000 		.word	.L50
 462 0080 18020000 		.word	.L50
 463 0084 BC000000 		.word	.L27
 464 0088 18020000 		.word	.L50
 465 008c 18020000 		.word	.L50
 466 0090 18020000 		.word	.L50
 467 0094 18020000 		.word	.L50
 468 0098 0C010000 		.word	.L28
 469 009c F4000000 		.word	.L29
 470 00a0 04010000 		.word	.L30
 471 00a4 18020000 		.word	.L50
 472 00a8 EA000000 		.word	.L31
 473 00ac 18020000 		.word	.L50
 474 00b0 18020000 		.word	.L50
 475 00b4 18020000 		.word	.L50
 476 00b8 18020000 		.word	.L50
 477 00bc 18020000 		.word	.L50
 478 00c0 18020000 		.word	.L50
 479 00c4 18020000 		.word	.L50
 480 00c8 18020000 		.word	.L50
ARM GAS  C:\Users\mliha\AppData\Local\Temp\cc428Uxc.s 			page 23


 481 00cc 18020000 		.word	.L50
 482 00d0 18020000 		.word	.L50
 483 00d4 18020000 		.word	.L50
 484 00d8 18020000 		.word	.L50
 485 00dc 18020000 		.word	.L50
 486 00e0 18020000 		.word	.L50
 487 00e4 18020000 		.word	.L50
 488 00e8 18020000 		.word	.L50
 489 00ec 18020000 		.word	.L50
 490 00f0 18020000 		.word	.L50
 491 00f4 18020000 		.word	.L50
 492 00f8 18020000 		.word	.L50
 493 00fc 18020000 		.word	.L50
 494 0100 18020000 		.word	.L50
 495 0104 8C010000 		.word	.L32
 496 0108 C2010000 		.word	.L33
 497 010c C8010000 		.word	.L34
 498 0110 18020000 		.word	.L50
 499 0114 18020000 		.word	.L50
 500 0118 18020000 		.word	.L50
 501 011c 18020000 		.word	.L50
 502 0120 18020000 		.word	.L50
 503 0124 18020000 		.word	.L50
 504 0128 18020000 		.word	.L50
 505 012c 18020000 		.word	.L50
 506 0130 04020000 		.word	.L35
 507 0134 18020000 		.word	.L50
 508 0138 18020000 		.word	.L50
 509 013c 18020000 		.word	.L50
 510 0140 18020000 		.word	.L50
 511 0144 18020000 		.word	.L50
 512 0148 18020000 		.word	.L50
 513 014c 18020000 		.word	.L50
 514 0150 0E020000 		.word	.L37
 515 0154 18020000 		.word	.L50
 516 0158 18020000 		.word	.L50
 517 015c 18020000 		.word	.L50
 518 0160 18020000 		.word	.L50
 519 0164 18020000 		.word	.L50
 520 0168 18020000 		.word	.L50
 521 016c 18020000 		.word	.L50
 522 0170 18020000 		.word	.L50
 523 0174 18020000 		.word	.L50
 524 0178 18020000 		.word	.L50
 525 017c 18020000 		.word	.L50
 526 0180 18020000 		.word	.L50
 527 0184 18020000 		.word	.L50
 528 0188 18020000 		.word	.L50
 529 018c 18020000 		.word	.L50
 530 0190 18020000 		.word	.L50
 531 0194 18020000 		.word	.L50
 532 0198 18020000 		.word	.L50
 533 019c 18020000 		.word	.L50
 534 01a0 18020000 		.word	.L50
 535 01a4 18020000 		.word	.L50
 536 01a8 18020000 		.word	.L50
 537 01ac 18020000 		.word	.L50
ARM GAS  C:\Users\mliha\AppData\Local\Temp\cc428Uxc.s 			page 24


 538 01b0 18020000 		.word	.L50
 539 01b4 18020000 		.word	.L50
 540 01b8 18020000 		.word	.L50
 541 01bc 18020000 		.word	.L50
 542 01c0 18020000 		.word	.L50
 543 01c4 80010000 		.word	.L38
 544              		.section	.text.CyBle_EventHandler
 545              	.L23:
 546              	.LBB3:
 773:.\Generated_Source\PSoC4/BLE_1_eventHandler.c ****     {
 774:.\Generated_Source\PSoC4/BLE_1_eventHandler.c ****         /**********************************************************
 775:.\Generated_Source\PSoC4/BLE_1_eventHandler.c ****         ##General events
 776:.\Generated_Source\PSoC4/BLE_1_eventHandler.c ****         ***********************************************************/
 777:.\Generated_Source\PSoC4/BLE_1_eventHandler.c ****         case CYBLE_EVT_STACK_ON:
 778:.\Generated_Source\PSoC4/BLE_1_eventHandler.c ****         #if(CYBLE_MODE_PROFILE)
 779:.\Generated_Source\PSoC4/BLE_1_eventHandler.c ****         {
 780:.\Generated_Source\PSoC4/BLE_1_eventHandler.c ****             CYBLE_BLESS_PWR_IN_DB_T bleSsPowerLevel;
 781:.\Generated_Source\PSoC4/BLE_1_eventHandler.c ****             
 782:.\Generated_Source\PSoC4/BLE_1_eventHandler.c ****             /* Set Tx Power Level for advertising and connection channels */
 783:.\Generated_Source\PSoC4/BLE_1_eventHandler.c ****             bleSsPowerLevel.blePwrLevelInDbm = CYBLE_TX_POWER_LEVEL;
 547              		.loc 1 783 0
 548 0032 3B1C     		mov	r3, r7
 549 0034 0C33     		add	r3, r3, #12
 550 0036 0822     		mov	r2, #8
 551 0038 1A70     		strb	r2, [r3]
 784:.\Generated_Source\PSoC4/BLE_1_eventHandler.c ****             bleSsPowerLevel.bleSsChId = CYBLE_LL_ADV_CH_TYPE;
 552              		.loc 1 784 0
 553 003a 3B1C     		mov	r3, r7
 554 003c 0C33     		add	r3, r3, #12
 555 003e 0022     		mov	r2, #0
 556 0040 5A70     		strb	r2, [r3, #1]
 785:.\Generated_Source\PSoC4/BLE_1_eventHandler.c ****             (void) CyBle_SetTxPowerLevel (&bleSsPowerLevel);
 557              		.loc 1 785 0
 558 0042 3B1C     		mov	r3, r7
 559 0044 0C33     		add	r3, r3, #12
 560 0046 181C     		mov	r0, r3
 561 0048 FFF7FEFF 		bl	CyBle_SetTxPowerLevel
 786:.\Generated_Source\PSoC4/BLE_1_eventHandler.c ****             bleSsPowerLevel.bleSsChId = CYBLE_LL_CONN_CH_TYPE;
 562              		.loc 1 786 0
 563 004c 3B1C     		mov	r3, r7
 564 004e 0C33     		add	r3, r3, #12
 565 0050 0122     		mov	r2, #1
 566 0052 5A70     		strb	r2, [r3, #1]
 787:.\Generated_Source\PSoC4/BLE_1_eventHandler.c ****             (void) CyBle_SetTxPowerLevel (&bleSsPowerLevel);
 567              		.loc 1 787 0
 568 0054 3B1C     		mov	r3, r7
 569 0056 0C33     		add	r3, r3, #12
 570 0058 181C     		mov	r0, r3
 571 005a FFF7FEFF 		bl	CyBle_SetTxPowerLevel
 572              	.LBE3:
 788:.\Generated_Source\PSoC4/BLE_1_eventHandler.c ****         }
 789:.\Generated_Source\PSoC4/BLE_1_eventHandler.c ****         #endif /* CYBLE_MODE_PROFILE */
 790:.\Generated_Source\PSoC4/BLE_1_eventHandler.c ****         #if (CYBLE_GATT_ROLE_SERVER || CYBLE_GATT_ROLE_CLIENT)
 791:.\Generated_Source\PSoC4/BLE_1_eventHandler.c ****             /* Set device Address  */
 792:.\Generated_Source\PSoC4/BLE_1_eventHandler.c ****             if(CyBle_IsDeviceAddressValid(cyBle_sflashDeviceAddress) != 0u)
 573              		.loc 1 792 0
 574 005e 7E4B     		ldr	r3, .L51+8
ARM GAS  C:\Users\mliha\AppData\Local\Temp\cc428Uxc.s 			page 25


 575 0060 1B68     		ldr	r3, [r3]
 576 0062 181C     		mov	r0, r3
 577 0064 FFF7FEFF 		bl	CyBle_IsDeviceAddressValid
 578 0068 031C     		mov	r3, r0
 579 006a 002B     		cmp	r3, #0
 580 006c 05D0     		beq	.L39
 793:.\Generated_Source\PSoC4/BLE_1_eventHandler.c ****             {
 794:.\Generated_Source\PSoC4/BLE_1_eventHandler.c ****                 (void) CyBle_SetDeviceAddress(cyBle_sflashDeviceAddress);
 581              		.loc 1 794 0
 582 006e 7A4B     		ldr	r3, .L51+8
 583 0070 1B68     		ldr	r3, [r3]
 584 0072 181C     		mov	r0, r3
 585 0074 FFF7FEFF 		bl	CyBle_SetDeviceAddress
 586 0078 0FE0     		b	.L40
 587              	.L39:
 795:.\Generated_Source\PSoC4/BLE_1_eventHandler.c ****             }
 796:.\Generated_Source\PSoC4/BLE_1_eventHandler.c ****             else
 797:.\Generated_Source\PSoC4/BLE_1_eventHandler.c ****             {
 798:.\Generated_Source\PSoC4/BLE_1_eventHandler.c ****             #if (SILICON_GENERATED_DEVICE_ADDRESS != 0u)
 799:.\Generated_Source\PSoC4/BLE_1_eventHandler.c ****                 cyBle_deviceAddress.bdAddr[0] = CYBLE_SFLASH_DIE_X_REG;
 588              		.loc 1 799 0
 589 007a 784B     		ldr	r3, .L51+12
 590 007c 1A78     		ldrb	r2, [r3]
 591 007e 784B     		ldr	r3, .L51+16
 592 0080 1A70     		strb	r2, [r3]
 800:.\Generated_Source\PSoC4/BLE_1_eventHandler.c ****                 cyBle_deviceAddress.bdAddr[1] = CYBLE_SFLASH_DIE_Y_REG;
 593              		.loc 1 800 0
 594 0082 784B     		ldr	r3, .L51+20
 595 0084 1A78     		ldrb	r2, [r3]
 596 0086 764B     		ldr	r3, .L51+16
 597 0088 5A70     		strb	r2, [r3, #1]
 801:.\Generated_Source\PSoC4/BLE_1_eventHandler.c ****                 cyBle_deviceAddress.bdAddr[2] = CYBLE_SFLASH_DIE_WAFER_REG;
 598              		.loc 1 801 0
 599 008a 774B     		ldr	r3, .L51+24
 600 008c 1A78     		ldrb	r2, [r3]
 601 008e 744B     		ldr	r3, .L51+16
 602 0090 9A70     		strb	r2, [r3, #2]
 802:.\Generated_Source\PSoC4/BLE_1_eventHandler.c ****             #endif /* SILICON_GENERATED_DEVICE_ADDRESS != 0u */
 803:.\Generated_Source\PSoC4/BLE_1_eventHandler.c ****                 (void) CyBle_SetDeviceAddress(&cyBle_deviceAddress);
 603              		.loc 1 803 0
 604 0092 734B     		ldr	r3, .L51+16
 605 0094 181C     		mov	r0, r3
 606 0096 FFF7FEFF 		bl	CyBle_SetDeviceAddress
 607              	.L40:
 804:.\Generated_Source\PSoC4/BLE_1_eventHandler.c ****             }
 805:.\Generated_Source\PSoC4/BLE_1_eventHandler.c ****             /* Set device IO Capability  */
 806:.\Generated_Source\PSoC4/BLE_1_eventHandler.c ****             (void) CyBle_GapSetIoCap(CYBLE_IO_CAPABILITY);    
 608              		.loc 1 806 0
 609 009a 0320     		mov	r0, #3
 610 009c FFF7FEFF 		bl	CyBle_GapSetIoCap
 807:.\Generated_Source\PSoC4/BLE_1_eventHandler.c ****         #endif /* CYBLE_GATT_ROLE_SERVER || CYBLE_GATT_ROLE_CLIENT */
 808:.\Generated_Source\PSoC4/BLE_1_eventHandler.c ****             CyBle_SetState(CYBLE_STATE_DISCONNECTED);
 611              		.loc 1 808 0
 612 00a0 724B     		ldr	r3, .L51+28
 613 00a2 0422     		mov	r2, #4
 614 00a4 1A70     		strb	r2, [r3]
 809:.\Generated_Source\PSoC4/BLE_1_eventHandler.c ****             break;
ARM GAS  C:\Users\mliha\AppData\Local\Temp\cc428Uxc.s 			page 26


 615              		.loc 1 809 0
 616 00a6 B8E0     		b	.L41
 617              	.L25:
 810:.\Generated_Source\PSoC4/BLE_1_eventHandler.c ****         case CYBLE_EVT_TIMEOUT:
 811:.\Generated_Source\PSoC4/BLE_1_eventHandler.c ****             CyBle_TimeOutEventHandler((CYBLE_TO_REASON_CODE_T *)eventParam);
 618              		.loc 1 811 0
 619 00a8 3B68     		ldr	r3, [r7]
 620 00aa 181C     		mov	r0, r3
 621 00ac FFF7FEFF 		bl	CyBle_TimeOutEventHandler
 812:.\Generated_Source\PSoC4/BLE_1_eventHandler.c ****             break;
 622              		.loc 1 812 0
 623 00b0 B3E0     		b	.L41
 624              	.L26:
 813:.\Generated_Source\PSoC4/BLE_1_eventHandler.c ****     	case CYBLE_EVT_STACK_BUSY_STATUS:
 814:.\Generated_Source\PSoC4/BLE_1_eventHandler.c ****             cyBle_busStatus = *(uint8 *)eventParam;
 625              		.loc 1 814 0
 626 00b2 3B68     		ldr	r3, [r7]
 627 00b4 1A78     		ldrb	r2, [r3]
 628 00b6 6E4B     		ldr	r3, .L51+32
 629 00b8 1A70     		strb	r2, [r3]
 815:.\Generated_Source\PSoC4/BLE_1_eventHandler.c ****             break;
 630              		.loc 1 815 0
 631 00ba AEE0     		b	.L41
 632              	.L27:
 816:.\Generated_Source\PSoC4/BLE_1_eventHandler.c **** 
 817:.\Generated_Source\PSoC4/BLE_1_eventHandler.c ****         /**********************************************************
 818:.\Generated_Source\PSoC4/BLE_1_eventHandler.c ****         ##GAP events
 819:.\Generated_Source\PSoC4/BLE_1_eventHandler.c ****         ***********************************************************/
 820:.\Generated_Source\PSoC4/BLE_1_eventHandler.c ****         case CYBLE_EVT_GAP_AUTH_REQ:
 821:.\Generated_Source\PSoC4/BLE_1_eventHandler.c ****         #if(CYBLE_MODE_PROFILE)
 822:.\Generated_Source\PSoC4/BLE_1_eventHandler.c ****             if(0u == (cyBle_eventHandlerFlag & CYBLE_DISABLE_AUTOMATIC_AUTH))
 633              		.loc 1 822 0
 634 00bc 644B     		ldr	r3, .L51
 635 00be 1B78     		ldrb	r3, [r3]
 636 00c0 DBB2     		uxtb	r3, r3
 637 00c2 1A1C     		mov	r2, r3
 638 00c4 2023     		mov	r3, #32
 639 00c6 1340     		and	r3, r2
 640 00c8 0ED1     		bne	.L42
 823:.\Generated_Source\PSoC4/BLE_1_eventHandler.c ****             {
 824:.\Generated_Source\PSoC4/BLE_1_eventHandler.c ****                 /* If the responding device does not support pairing then the responding 
 825:.\Generated_Source\PSoC4/BLE_1_eventHandler.c ****                    device shall respond using the Pairing Failed message with the error 
 826:.\Generated_Source\PSoC4/BLE_1_eventHandler.c ****                    code "Pairing Not Supported" otherwise it responds with a Pairing 
 827:.\Generated_Source\PSoC4/BLE_1_eventHandler.c ****                    Response message.
 828:.\Generated_Source\PSoC4/BLE_1_eventHandler.c ****                 */
 829:.\Generated_Source\PSoC4/BLE_1_eventHandler.c ****                 if(cyBle_authInfo.security == (CYBLE_GAP_SEC_MODE_1 | CYBLE_GAP_SEC_LEVEL_1))
 641              		.loc 1 829 0
 642 00ca 6A4B     		ldr	r3, .L51+36
 643 00cc 1B78     		ldrb	r3, [r3]
 644 00ce 102B     		cmp	r3, #16
 645 00d0 02D1     		bne	.L43
 830:.\Generated_Source\PSoC4/BLE_1_eventHandler.c ****                 {
 831:.\Generated_Source\PSoC4/BLE_1_eventHandler.c ****                     cyBle_authInfo.authErr = CYBLE_GAP_AUTH_ERROR_PAIRING_NOT_SUPPORTED;
 646              		.loc 1 831 0
 647 00d2 684B     		ldr	r3, .L51+36
 648 00d4 0522     		mov	r2, #5
 649 00d6 DA70     		strb	r2, [r3, #3]
ARM GAS  C:\Users\mliha\AppData\Local\Temp\cc428Uxc.s 			page 27


 650              	.L43:
 832:.\Generated_Source\PSoC4/BLE_1_eventHandler.c ****                 }    
 833:.\Generated_Source\PSoC4/BLE_1_eventHandler.c ****             #if(CYBLE_GAP_ROLE_PERIPHERAL)
 834:.\Generated_Source\PSoC4/BLE_1_eventHandler.c ****                 (void)CyBle_GappAuthReqReply(cyBle_connHandle.bdHandle, &cyBle_authInfo);
 651              		.loc 1 834 0
 652 00d8 674B     		ldr	r3, .L51+40
 653 00da 1A78     		ldrb	r2, [r3]
 654 00dc 654B     		ldr	r3, .L51+36
 655 00de 101C     		mov	r0, r2
 656 00e0 191C     		mov	r1, r3
 657 00e2 FFF7FEFF 		bl	CyBle_GappAuthReqReply
 835:.\Generated_Source\PSoC4/BLE_1_eventHandler.c ****             #endif /* CYBLE_GAP_ROLE_PERIPHERAL */
 836:.\Generated_Source\PSoC4/BLE_1_eventHandler.c ****             #if (CYBLE_GAP_ROLE_CENTRAL)
 837:.\Generated_Source\PSoC4/BLE_1_eventHandler.c ****                 (void)CyBle_GapAuthReq(cyBle_connHandle.bdHandle, &cyBle_authInfo);
 838:.\Generated_Source\PSoC4/BLE_1_eventHandler.c ****             #endif /* CYBLE_GAP_ROLE_CENTRAL */
 839:.\Generated_Source\PSoC4/BLE_1_eventHandler.c ****             }
 840:.\Generated_Source\PSoC4/BLE_1_eventHandler.c ****         #endif /* CYBLE_MODE_PROFILE */
 841:.\Generated_Source\PSoC4/BLE_1_eventHandler.c ****             break;
 658              		.loc 1 841 0
 659 00e6 98E0     		b	.L41
 660              	.L42:
 661 00e8 97E0     		b	.L41
 662              	.L31:
 842:.\Generated_Source\PSoC4/BLE_1_eventHandler.c **** 
 843:.\Generated_Source\PSoC4/BLE_1_eventHandler.c ****         case CYBLE_EVT_GAP_CONNECTION_UPDATE_COMPLETE:
 844:.\Generated_Source\PSoC4/BLE_1_eventHandler.c ****             CyBle_GapConnUpdateCompleteEventHandler((const CYBLE_GAP_CONN_PARAM_UPDATED_IN_CONTROLL
 663              		.loc 1 844 0
 664 00ea 3B68     		ldr	r3, [r7]
 665 00ec 181C     		mov	r0, r3
 666 00ee FFF7FEFF 		bl	CyBle_GapConnUpdateCompleteEventHandler
 845:.\Generated_Source\PSoC4/BLE_1_eventHandler.c ****             break;
 667              		.loc 1 845 0
 668 00f2 92E0     		b	.L41
 669              	.L29:
 846:.\Generated_Source\PSoC4/BLE_1_eventHandler.c ****         case CYBLE_EVT_GAP_DEVICE_CONNECTED:
 847:.\Generated_Source\PSoC4/BLE_1_eventHandler.c ****             CyBle_GapConnUpdateCompleteEventHandler((const CYBLE_GAP_CONN_PARAM_UPDATED_IN_CONTROLL
 670              		.loc 1 847 0
 671 00f4 3B68     		ldr	r3, [r7]
 672 00f6 181C     		mov	r0, r3
 673 00f8 FFF7FEFF 		bl	CyBle_GapConnUpdateCompleteEventHandler
 848:.\Generated_Source\PSoC4/BLE_1_eventHandler.c ****             #if(CYBLE_GAP_ROLE_CENTRAL)
 849:.\Generated_Source\PSoC4/BLE_1_eventHandler.c ****                 if(cyBle_connectingTimeout != 0u)
 850:.\Generated_Source\PSoC4/BLE_1_eventHandler.c ****                 {
 851:.\Generated_Source\PSoC4/BLE_1_eventHandler.c ****                    (void)CyBle_StopTimer();
 852:.\Generated_Source\PSoC4/BLE_1_eventHandler.c ****                 }
 853:.\Generated_Source\PSoC4/BLE_1_eventHandler.c ****             #endif /* CYBLE_GAP_ROLE_CENTRAL */
 854:.\Generated_Source\PSoC4/BLE_1_eventHandler.c ****             CyBle_SetState(CYBLE_STATE_CONNECTED);
 674              		.loc 1 854 0
 675 00fc 5B4B     		ldr	r3, .L51+28
 676 00fe 0222     		mov	r2, #2
 677 0100 1A70     		strb	r2, [r3]
 855:.\Generated_Source\PSoC4/BLE_1_eventHandler.c ****             break;
 678              		.loc 1 855 0
 679 0102 8AE0     		b	.L41
 680              	.L30:
 856:.\Generated_Source\PSoC4/BLE_1_eventHandler.c **** 
 857:.\Generated_Source\PSoC4/BLE_1_eventHandler.c ****         case CYBLE_EVT_GAP_DEVICE_DISCONNECTED:
ARM GAS  C:\Users\mliha\AppData\Local\Temp\cc428Uxc.s 			page 28


 858:.\Generated_Source\PSoC4/BLE_1_eventHandler.c ****             CyBle_SetState(CYBLE_STATE_DISCONNECTED);
 681              		.loc 1 858 0
 682 0104 594B     		ldr	r3, .L51+28
 683 0106 0422     		mov	r2, #4
 684 0108 1A70     		strb	r2, [r3]
 859:.\Generated_Source\PSoC4/BLE_1_eventHandler.c ****             break;
 685              		.loc 1 859 0
 686 010a 86E0     		b	.L41
 687              	.L28:
 860:.\Generated_Source\PSoC4/BLE_1_eventHandler.c ****             
 861:.\Generated_Source\PSoC4/BLE_1_eventHandler.c ****         #if(CYBLE_GAP_ROLE_PERIPHERAL || CYBLE_GAP_ROLE_BROADCASTER)
 862:.\Generated_Source\PSoC4/BLE_1_eventHandler.c ****         case CYBLE_EVT_GAPP_ADVERTISEMENT_START_STOP:
 863:.\Generated_Source\PSoC4/BLE_1_eventHandler.c ****             
 864:.\Generated_Source\PSoC4/BLE_1_eventHandler.c ****         #ifdef CYBLE_CPS_SERVER
 865:.\Generated_Source\PSoC4/BLE_1_eventHandler.c ****             #if(CYBLE_GAP_ROLE_BROADCASTER)
 866:.\Generated_Source\PSoC4/BLE_1_eventHandler.c ****                 CyBle_CpssAdvertisementStartStopEventHandler();
 867:.\Generated_Source\PSoC4/BLE_1_eventHandler.c ****             #endif /* CYBLE_GAP_ROLE_BROADCASTER */
 868:.\Generated_Source\PSoC4/BLE_1_eventHandler.c ****         #endif /* CYBLE_CPS_SERVER */
 869:.\Generated_Source\PSoC4/BLE_1_eventHandler.c ****             
 870:.\Generated_Source\PSoC4/BLE_1_eventHandler.c ****             if((CYBLE_STATE_CONNECTED != CyBle_GetState()) && ((cyBle_eventHandlerFlag & CYBLE_CALL
 688              		.loc 1 870 0
 689 010c 574B     		ldr	r3, .L51+28
 690 010e 1B78     		ldrb	r3, [r3]
 691 0110 022B     		cmp	r3, #2
 692 0112 34D0     		beq	.L44
 693              		.loc 1 870 0 is_stmt 0 discriminator 1
 694 0114 4E4B     		ldr	r3, .L51
 695 0116 1B78     		ldrb	r3, [r3]
 696 0118 DBB2     		uxtb	r3, r3
 697 011a 1A1C     		mov	r2, r3
 698 011c 0123     		mov	r3, #1
 699 011e 1340     		and	r3, r2
 700 0120 2DD0     		beq	.L44
 871:.\Generated_Source\PSoC4/BLE_1_eventHandler.c ****             {
 872:.\Generated_Source\PSoC4/BLE_1_eventHandler.c ****                 /* After CyBle_GappStartAdvertisement first event indicates that advertising has be
 873:.\Generated_Source\PSoC4/BLE_1_eventHandler.c ****                 if(0u != (cyBle_eventHandlerFlag & CYBLE_START_FLAG))
 701              		.loc 1 873 0 is_stmt 1
 702 0122 4B4B     		ldr	r3, .L51
 703 0124 1B78     		ldrb	r3, [r3]
 704 0126 DBB2     		uxtb	r3, r3
 705 0128 1A1C     		mov	r2, r3
 706 012a 0423     		mov	r3, #4
 707 012c 1340     		and	r3, r2
 708 012e 0BD0     		beq	.L45
 874:.\Generated_Source\PSoC4/BLE_1_eventHandler.c ****                 {
 875:.\Generated_Source\PSoC4/BLE_1_eventHandler.c ****                     CyBle_SetState(CYBLE_STATE_ADVERTISING);
 709              		.loc 1 875 0
 710 0130 4E4B     		ldr	r3, .L51+28
 711 0132 0322     		mov	r2, #3
 712 0134 1A70     		strb	r2, [r3]
 876:.\Generated_Source\PSoC4/BLE_1_eventHandler.c ****                     cyBle_eventHandlerFlag &= (uint8)~CYBLE_START_FLAG;
 713              		.loc 1 876 0
 714 0136 464B     		ldr	r3, .L51
 715 0138 1B78     		ldrb	r3, [r3]
 716 013a DBB2     		uxtb	r3, r3
 717 013c 0422     		mov	r2, #4
 718 013e 9343     		bic	r3, r2
ARM GAS  C:\Users\mliha\AppData\Local\Temp\cc428Uxc.s 			page 29


 719 0140 DAB2     		uxtb	r2, r3
 720 0142 434B     		ldr	r3, .L51
 721 0144 1A70     		strb	r2, [r3]
 722 0146 1AE0     		b	.L44
 723              	.L45:
 877:.\Generated_Source\PSoC4/BLE_1_eventHandler.c ****                 }
 878:.\Generated_Source\PSoC4/BLE_1_eventHandler.c ****                 /* When application initiated stop advertisement */
 879:.\Generated_Source\PSoC4/BLE_1_eventHandler.c ****                 else if(0u != (cyBle_eventHandlerFlag & CYBLE_STOP_FLAG))
 724              		.loc 1 879 0
 725 0148 414B     		ldr	r3, .L51
 726 014a 1B78     		ldrb	r3, [r3]
 727 014c DBB2     		uxtb	r3, r3
 728 014e 1A1C     		mov	r2, r3
 729 0150 0823     		mov	r3, #8
 730 0152 1340     		and	r3, r2
 731 0154 0BD0     		beq	.L46
 880:.\Generated_Source\PSoC4/BLE_1_eventHandler.c ****                 {
 881:.\Generated_Source\PSoC4/BLE_1_eventHandler.c ****                     CyBle_SetState(CYBLE_STATE_DISCONNECTED);  
 732              		.loc 1 881 0
 733 0156 454B     		ldr	r3, .L51+28
 734 0158 0422     		mov	r2, #4
 735 015a 1A70     		strb	r2, [r3]
 882:.\Generated_Source\PSoC4/BLE_1_eventHandler.c ****                     cyBle_eventHandlerFlag &= (uint8)~CYBLE_STOP_FLAG;
 736              		.loc 1 882 0
 737 015c 3C4B     		ldr	r3, .L51
 738 015e 1B78     		ldrb	r3, [r3]
 739 0160 DBB2     		uxtb	r3, r3
 740 0162 0822     		mov	r2, #8
 741 0164 9343     		bic	r3, r2
 742 0166 DAB2     		uxtb	r2, r3
 743 0168 394B     		ldr	r3, .L51
 744 016a 1A70     		strb	r2, [r3]
 745 016c 07E0     		b	.L44
 746              	.L46:
 883:.\Generated_Source\PSoC4/BLE_1_eventHandler.c ****                 }
 884:.\Generated_Source\PSoC4/BLE_1_eventHandler.c ****                 else /* Following event indicates that advertising has been stopped */
 885:.\Generated_Source\PSoC4/BLE_1_eventHandler.c ****                 {
 886:.\Generated_Source\PSoC4/BLE_1_eventHandler.c ****                     if(CYBLE_STATE_ADVERTISING == CyBle_GetState())
 747              		.loc 1 886 0
 748 016e 3F4B     		ldr	r3, .L51+28
 749 0170 1B78     		ldrb	r3, [r3]
 750 0172 032B     		cmp	r3, #3
 751 0174 03D1     		bne	.L44
 887:.\Generated_Source\PSoC4/BLE_1_eventHandler.c ****                     {
 888:.\Generated_Source\PSoC4/BLE_1_eventHandler.c ****                         CyBle_SetState(CYBLE_STATE_DISCONNECTED);
 752              		.loc 1 888 0
 753 0176 3D4B     		ldr	r3, .L51+28
 754 0178 0422     		mov	r2, #4
 755 017a 1A70     		strb	r2, [r3]
 889:.\Generated_Source\PSoC4/BLE_1_eventHandler.c ****                     #if (CYBLE_SLOW_ADV_ENABLED != 0u)
 890:.\Generated_Source\PSoC4/BLE_1_eventHandler.c ****                         if(cyBle_advertisingIntervalType == CYBLE_ADVERTISING_FAST)
 891:.\Generated_Source\PSoC4/BLE_1_eventHandler.c ****                         {
 892:.\Generated_Source\PSoC4/BLE_1_eventHandler.c ****                             /* When fast advertising time out occur: Start slow advertising */
 893:.\Generated_Source\PSoC4/BLE_1_eventHandler.c ****                             if(CYBLE_ERROR_OK == CyBle_GappStartAdvertisement(CYBLE_ADVERTISING_SLO
 894:.\Generated_Source\PSoC4/BLE_1_eventHandler.c ****                             {
 895:.\Generated_Source\PSoC4/BLE_1_eventHandler.c ****                                 CyBle_SetState(CYBLE_STATE_ADVERTISING);
 896:.\Generated_Source\PSoC4/BLE_1_eventHandler.c ****                             }
ARM GAS  C:\Users\mliha\AppData\Local\Temp\cc428Uxc.s 			page 30


 897:.\Generated_Source\PSoC4/BLE_1_eventHandler.c ****                         }
 898:.\Generated_Source\PSoC4/BLE_1_eventHandler.c ****                     #endif /* CYBLE_SLOW_ADV_ENABLED */
 899:.\Generated_Source\PSoC4/BLE_1_eventHandler.c ****                     }
 900:.\Generated_Source\PSoC4/BLE_1_eventHandler.c ****                 }
 901:.\Generated_Source\PSoC4/BLE_1_eventHandler.c ****             }
 902:.\Generated_Source\PSoC4/BLE_1_eventHandler.c ****             break;
 756              		.loc 1 902 0
 757 017c 4DE0     		b	.L41
 758              	.L44:
 759 017e 4CE0     		b	.L41
 760              	.L38:
 903:.\Generated_Source\PSoC4/BLE_1_eventHandler.c ****         #endif /* CYBLE_GAP_ROLE_PERIPHERAL || CYBLE_GAP_ROLE_BROADCASTER */
 904:.\Generated_Source\PSoC4/BLE_1_eventHandler.c ****         
 905:.\Generated_Source\PSoC4/BLE_1_eventHandler.c ****         #if(CYBLE_GAP_ROLE_CENTRAL || CYBLE_GAP_ROLE_OBSERVER)    
 906:.\Generated_Source\PSoC4/BLE_1_eventHandler.c ****         case CYBLE_EVT_GAPC_SCAN_START_STOP:
 907:.\Generated_Source\PSoC4/BLE_1_eventHandler.c ****             
 908:.\Generated_Source\PSoC4/BLE_1_eventHandler.c ****         #ifdef CYBLE_CPS_CLIENT
 909:.\Generated_Source\PSoC4/BLE_1_eventHandler.c ****             CyBle_CpscScanStartStopEventHandler();
 910:.\Generated_Source\PSoC4/BLE_1_eventHandler.c ****         #endif /* CYBLE_CPS_CLIENT */
 911:.\Generated_Source\PSoC4/BLE_1_eventHandler.c ****             
 912:.\Generated_Source\PSoC4/BLE_1_eventHandler.c ****             if((CYBLE_STATE_CONNECTED != CyBle_GetState()) && ((cyBle_eventHandlerFlag & CYBLE_CALL
 913:.\Generated_Source\PSoC4/BLE_1_eventHandler.c ****             {
 914:.\Generated_Source\PSoC4/BLE_1_eventHandler.c ****                 /* After CyBle_GapcStartScan first event indicates that scanning has been started *
 915:.\Generated_Source\PSoC4/BLE_1_eventHandler.c ****                 if(0u != (cyBle_eventHandlerFlag & CYBLE_START_FLAG))
 916:.\Generated_Source\PSoC4/BLE_1_eventHandler.c ****                 {
 917:.\Generated_Source\PSoC4/BLE_1_eventHandler.c ****                     CyBle_SetState(CYBLE_STATE_SCANNING);
 918:.\Generated_Source\PSoC4/BLE_1_eventHandler.c ****                     cyBle_eventHandlerFlag &= (uint8)~CYBLE_START_FLAG;
 919:.\Generated_Source\PSoC4/BLE_1_eventHandler.c ****                 }
 920:.\Generated_Source\PSoC4/BLE_1_eventHandler.c ****                 /* When application initiated stop scanning */
 921:.\Generated_Source\PSoC4/BLE_1_eventHandler.c ****                 else if(0u != (cyBle_eventHandlerFlag & CYBLE_STOP_FLAG))
 922:.\Generated_Source\PSoC4/BLE_1_eventHandler.c ****                 {
 923:.\Generated_Source\PSoC4/BLE_1_eventHandler.c ****                     CyBle_SetState(CYBLE_STATE_DISCONNECTED);  
 924:.\Generated_Source\PSoC4/BLE_1_eventHandler.c ****                     cyBle_eventHandlerFlag &= (uint8)~CYBLE_STOP_FLAG;
 925:.\Generated_Source\PSoC4/BLE_1_eventHandler.c ****                 }
 926:.\Generated_Source\PSoC4/BLE_1_eventHandler.c ****                 else /* Following event indicates that scanning has been stopped by stack */
 927:.\Generated_Source\PSoC4/BLE_1_eventHandler.c ****                 {
 928:.\Generated_Source\PSoC4/BLE_1_eventHandler.c ****                     if(CYBLE_STATE_SCANNING == CyBle_GetState())
 929:.\Generated_Source\PSoC4/BLE_1_eventHandler.c ****                     {
 930:.\Generated_Source\PSoC4/BLE_1_eventHandler.c ****                         CyBle_SetState(CYBLE_STATE_DISCONNECTED);  
 931:.\Generated_Source\PSoC4/BLE_1_eventHandler.c ****                     #if (CYBLE_SLOW_SCAN_ENABLED != 0u)
 932:.\Generated_Source\PSoC4/BLE_1_eventHandler.c ****                         if(cyBle_scanningIntervalType == CYBLE_SCANNING_FAST)
 933:.\Generated_Source\PSoC4/BLE_1_eventHandler.c ****                         {
 934:.\Generated_Source\PSoC4/BLE_1_eventHandler.c ****                             /* When fast scanning time out occur: Start slow scanning */
 935:.\Generated_Source\PSoC4/BLE_1_eventHandler.c ****                             if(CYBLE_ERROR_OK == CyBle_GapcStartScan(CYBLE_SCANNING_SLOW))
 936:.\Generated_Source\PSoC4/BLE_1_eventHandler.c ****                             {
 937:.\Generated_Source\PSoC4/BLE_1_eventHandler.c ****                                 CyBle_SetState(CYBLE_STATE_SCANNING);
 938:.\Generated_Source\PSoC4/BLE_1_eventHandler.c ****                             }
 939:.\Generated_Source\PSoC4/BLE_1_eventHandler.c ****                         }
 940:.\Generated_Source\PSoC4/BLE_1_eventHandler.c ****                     #endif /* CYBLE_SLOW_ADV_ENABLED */
 941:.\Generated_Source\PSoC4/BLE_1_eventHandler.c ****                     }
 942:.\Generated_Source\PSoC4/BLE_1_eventHandler.c ****                 }
 943:.\Generated_Source\PSoC4/BLE_1_eventHandler.c ****             }
 944:.\Generated_Source\PSoC4/BLE_1_eventHandler.c ****             break;
 945:.\Generated_Source\PSoC4/BLE_1_eventHandler.c ****         #endif /* CYBLE_GAP_ROLE_CENTRAL || CYBLE_GAP_ROLE_OBSERVER */
 946:.\Generated_Source\PSoC4/BLE_1_eventHandler.c **** 
 947:.\Generated_Source\PSoC4/BLE_1_eventHandler.c ****         /**********************************************************
 948:.\Generated_Source\PSoC4/BLE_1_eventHandler.c ****         ##L2AP events 
ARM GAS  C:\Users\mliha\AppData\Local\Temp\cc428Uxc.s 			page 31


 949:.\Generated_Source\PSoC4/BLE_1_eventHandler.c ****         ***********************************************************/
 950:.\Generated_Source\PSoC4/BLE_1_eventHandler.c ****         case CYBLE_EVT_L2CAP_CONN_PARAM_UPDATE_RSP:
 951:.\Generated_Source\PSoC4/BLE_1_eventHandler.c ****             CyBle_L2Cap_ConnParamUpdateRspEventHandler(*(uint16 *)eventParam);
 761              		.loc 1 951 0
 762 0180 3B68     		ldr	r3, [r7]
 763 0182 1B88     		ldrh	r3, [r3]
 764 0184 181C     		mov	r0, r3
 765 0186 FFF7FEFF 		bl	CyBle_L2Cap_ConnParamUpdateRspEventHandler
 952:.\Generated_Source\PSoC4/BLE_1_eventHandler.c ****             break;
 766              		.loc 1 952 0
 767 018a 46E0     		b	.L41
 768              	.L32:
 953:.\Generated_Source\PSoC4/BLE_1_eventHandler.c ****         
 954:.\Generated_Source\PSoC4/BLE_1_eventHandler.c ****         /**********************************************************
 955:.\Generated_Source\PSoC4/BLE_1_eventHandler.c ****         ##GATT events
 956:.\Generated_Source\PSoC4/BLE_1_eventHandler.c ****         ***********************************************************/        
 957:.\Generated_Source\PSoC4/BLE_1_eventHandler.c ****         case CYBLE_EVT_GATT_CONNECT_IND:
 958:.\Generated_Source\PSoC4/BLE_1_eventHandler.c ****             cyBle_connHandle = *(CYBLE_CONN_HANDLE_T *)eventParam;
 769              		.loc 1 958 0
 770 018c 3A4A     		ldr	r2, .L51+40
 771 018e 3B68     		ldr	r3, [r7]
 772 0190 111C     		mov	r1, r2
 773 0192 1A1C     		mov	r2, r3
 774 0194 0223     		mov	r3, #2
 775 0196 081C     		mov	r0, r1
 776 0198 111C     		mov	r1, r2
 777 019a 1A1C     		mov	r2, r3
 778 019c FFF7FEFF 		bl	memcpy
 959:.\Generated_Source\PSoC4/BLE_1_eventHandler.c ****             
 960:.\Generated_Source\PSoC4/BLE_1_eventHandler.c ****         #if((CYBLE_GATT_ROLE_SERVER) && (CYBLE_GATT_DB_CCCD_COUNT != 0u))
 961:.\Generated_Source\PSoC4/BLE_1_eventHandler.c ****             /* Init CCCD values in RAM */
 962:.\Generated_Source\PSoC4/BLE_1_eventHandler.c ****         	(void) memcpy (cyBle_attValuesCCCD, cyBle_attValuesCCCDFlashMemory[cyBle_connHandle.bdHand
 779              		.loc 1 962 0
 780 01a0 354B     		ldr	r3, .L51+40
 781 01a2 1B78     		ldrb	r3, [r3]
 782 01a4 9A00     		lsl	r2, r3, #2
 783 01a6 354B     		ldr	r3, .L51+44
 784 01a8 D318     		add	r3, r2, r3
 785 01aa 354A     		ldr	r2, .L51+48
 786 01ac 111C     		mov	r1, r2
 787 01ae 1A1C     		mov	r2, r3
 788 01b0 0423     		mov	r3, #4
 789 01b2 081C     		mov	r0, r1
 790 01b4 111C     		mov	r1, r2
 791 01b6 1A1C     		mov	r2, r3
 792 01b8 FFF7FEFF 		bl	memcpy
 963:.\Generated_Source\PSoC4/BLE_1_eventHandler.c ****                             CYBLE_GATT_DB_CCCD_COUNT);
 964:.\Generated_Source\PSoC4/BLE_1_eventHandler.c ****         #endif /* CYBLE_GATT_ROLE_SERVER */
 965:.\Generated_Source\PSoC4/BLE_1_eventHandler.c ****         
 966:.\Generated_Source\PSoC4/BLE_1_eventHandler.c ****         #if (CYBLE_GATT_ROLE_CLIENT)
 967:.\Generated_Source\PSoC4/BLE_1_eventHandler.c ****             CyBle_SetClientState(CYBLE_CLIENT_STATE_CONNECTED);
 968:.\Generated_Source\PSoC4/BLE_1_eventHandler.c ****         #endif /* CYBLE_GATT_ROLE_CLIENT */
 969:.\Generated_Source\PSoC4/BLE_1_eventHandler.c ****         
 970:.\Generated_Source\PSoC4/BLE_1_eventHandler.c ****             CyBle_GattConnectReqHandler();
 793              		.loc 1 970 0
 794 01bc FFF7FEFF 		bl	CyBle_GattConnectReqHandler
 971:.\Generated_Source\PSoC4/BLE_1_eventHandler.c ****             break;
ARM GAS  C:\Users\mliha\AppData\Local\Temp\cc428Uxc.s 			page 32


 795              		.loc 1 971 0
 796 01c0 2BE0     		b	.L41
 797              	.L33:
 972:.\Generated_Source\PSoC4/BLE_1_eventHandler.c **** 
 973:.\Generated_Source\PSoC4/BLE_1_eventHandler.c ****         case CYBLE_EVT_GATT_DISCONNECT_IND:
 974:.\Generated_Source\PSoC4/BLE_1_eventHandler.c ****             CyBle_GattDisconnectEventHandler();
 798              		.loc 1 974 0
 799 01c2 FFF7FEFF 		bl	CyBle_GattDisconnectEventHandler
 975:.\Generated_Source\PSoC4/BLE_1_eventHandler.c ****             break;
 800              		.loc 1 975 0
 801 01c6 28E0     		b	.L41
 802              	.L34:
 803              	.LBB4:
 976:.\Generated_Source\PSoC4/BLE_1_eventHandler.c **** 
 977:.\Generated_Source\PSoC4/BLE_1_eventHandler.c ****     #if((CYBLE_GATT_ROLE_SERVER) || (CYBLE_GATT_ROLE_CLIENT))
 978:.\Generated_Source\PSoC4/BLE_1_eventHandler.c ****         case CYBLE_EVT_GATTS_XCNHG_MTU_REQ:
 979:.\Generated_Source\PSoC4/BLE_1_eventHandler.c ****         {
 980:.\Generated_Source\PSoC4/BLE_1_eventHandler.c ****             uint16 cyBle_mtuSize;
 981:.\Generated_Source\PSoC4/BLE_1_eventHandler.c ****             if(CYBLE_GATT_MTU > ((CYBLE_GATT_XCHG_MTU_PARAM_T *)eventParam)->mtu)
 804              		.loc 1 981 0
 805 01c8 3B68     		ldr	r3, [r7]
 806 01ca 5B88     		ldrh	r3, [r3, #2]
 807 01cc 162B     		cmp	r3, #22
 808 01ce 05D8     		bhi	.L47
 982:.\Generated_Source\PSoC4/BLE_1_eventHandler.c ****             {
 983:.\Generated_Source\PSoC4/BLE_1_eventHandler.c ****                 cyBle_mtuSize = ((CYBLE_GATT_XCHG_MTU_PARAM_T *)eventParam)->mtu;
 809              		.loc 1 983 0
 810 01d0 3B1C     		mov	r3, r7
 811 01d2 0E33     		add	r3, r3, #14
 812 01d4 3A68     		ldr	r2, [r7]
 813 01d6 5288     		ldrh	r2, [r2, #2]
 814 01d8 1A80     		strh	r2, [r3]
 815 01da 03E0     		b	.L48
 816              	.L47:
 984:.\Generated_Source\PSoC4/BLE_1_eventHandler.c ****             }
 985:.\Generated_Source\PSoC4/BLE_1_eventHandler.c ****             else
 986:.\Generated_Source\PSoC4/BLE_1_eventHandler.c ****             {
 987:.\Generated_Source\PSoC4/BLE_1_eventHandler.c ****                 cyBle_mtuSize = CYBLE_GATT_MTU;
 817              		.loc 1 987 0
 818 01dc 3B1C     		mov	r3, r7
 819 01de 0E33     		add	r3, r3, #14
 820 01e0 1722     		mov	r2, #23
 821 01e2 1A80     		strh	r2, [r3]
 822              	.L48:
 988:.\Generated_Source\PSoC4/BLE_1_eventHandler.c ****             }
 989:.\Generated_Source\PSoC4/BLE_1_eventHandler.c ****             (void)CyBle_GattsExchangeMtuRsp(((CYBLE_GATT_XCHG_MTU_PARAM_T *)eventParam)->connHandle
 823              		.loc 1 989 0
 824 01e4 3B68     		ldr	r3, [r7]
 825 01e6 3A1C     		mov	r2, r7
 826 01e8 0E32     		add	r2, r2, #14
 827 01ea 1288     		ldrh	r2, [r2]
 828 01ec 1988     		ldrh	r1, [r3]
 829 01ee 0023     		mov	r3, #0
 830 01f0 0904     		lsl	r1, r1, #16
 831 01f2 090C     		lsr	r1, r1, #16
 832 01f4 1B0C     		lsr	r3, r3, #16
 833 01f6 1B04     		lsl	r3, r3, #16
ARM GAS  C:\Users\mliha\AppData\Local\Temp\cc428Uxc.s 			page 33


 834 01f8 0B43     		orr	r3, r1
 835 01fa 181C     		mov	r0, r3
 836 01fc 111C     		mov	r1, r2
 837 01fe FFF7FEFF 		bl	CyBle_GattsExchangeMtuRsp
 838              	.LBE4:
 990:.\Generated_Source\PSoC4/BLE_1_eventHandler.c ****              }
 991:.\Generated_Source\PSoC4/BLE_1_eventHandler.c ****             break;
 839              		.loc 1 991 0
 840 0202 0AE0     		b	.L41
 841              	.L35:
 992:.\Generated_Source\PSoC4/BLE_1_eventHandler.c ****     #endif /* (CYBLE_GATT_ROLE_SERVER) || (CYBLE_GATT_ROLE_CLIENT) */
 993:.\Generated_Source\PSoC4/BLE_1_eventHandler.c ****     
 994:.\Generated_Source\PSoC4/BLE_1_eventHandler.c ****     #if (CYBLE_GATT_ROLE_CLIENT)
 995:.\Generated_Source\PSoC4/BLE_1_eventHandler.c ****         case CYBLE_EVT_GAPC_SCAN_PROGRESS_RESULT:
 996:.\Generated_Source\PSoC4/BLE_1_eventHandler.c ****         #ifdef CYBLE_CPS_CLIENT
 997:.\Generated_Source\PSoC4/BLE_1_eventHandler.c ****                 CyBle_CpscScanProcessEventHandler((CYBLE_GAPC_ADV_REPORT_T *)eventParam);
 998:.\Generated_Source\PSoC4/BLE_1_eventHandler.c ****         #endif /* defined(CYBLE_CPS_CLIENT) */
 999:.\Generated_Source\PSoC4/BLE_1_eventHandler.c ****             break;
1000:.\Generated_Source\PSoC4/BLE_1_eventHandler.c ****     #endif /* (CYBLE_GATT_ROLE_CLIENT) */
1001:.\Generated_Source\PSoC4/BLE_1_eventHandler.c **** 
1002:.\Generated_Source\PSoC4/BLE_1_eventHandler.c ****     #if(CYBLE_GATT_ROLE_SERVER)
1003:.\Generated_Source\PSoC4/BLE_1_eventHandler.c ****         case CYBLE_EVT_GATTS_WRITE_REQ:
1004:.\Generated_Source\PSoC4/BLE_1_eventHandler.c ****             CyBle_WriteReqHandler((CYBLE_GATTS_WRITE_REQ_PARAM_T *)eventParam);
 842              		.loc 1 1004 0
 843 0204 3B68     		ldr	r3, [r7]
 844 0206 181C     		mov	r0, r3
 845 0208 FFF7FEFF 		bl	CyBle_WriteReqHandler
1005:.\Generated_Source\PSoC4/BLE_1_eventHandler.c ****             break;
 846              		.loc 1 1005 0
 847 020c 05E0     		b	.L41
 848              	.L37:
1006:.\Generated_Source\PSoC4/BLE_1_eventHandler.c **** 
1007:.\Generated_Source\PSoC4/BLE_1_eventHandler.c ****         case CYBLE_EVT_GATTS_WRITE_CMD_REQ:
1008:.\Generated_Source\PSoC4/BLE_1_eventHandler.c ****         #if defined(CYBLE_IAS_SERVER)
1009:.\Generated_Source\PSoC4/BLE_1_eventHandler.c ****             if((cyBle_eventHandlerFlag & CYBLE_CALLBACK) != 0u)
1010:.\Generated_Source\PSoC4/BLE_1_eventHandler.c ****             {
1011:.\Generated_Source\PSoC4/BLE_1_eventHandler.c ****                 (void)CyBle_IassWriteCmdEventHandler((CYBLE_GATTS_WRITE_REQ_PARAM_T *)eventParam);
1012:.\Generated_Source\PSoC4/BLE_1_eventHandler.c ****             }
1013:.\Generated_Source\PSoC4/BLE_1_eventHandler.c ****         #endif /* defined(CYBLE_IAS_SERVER) */
1014:.\Generated_Source\PSoC4/BLE_1_eventHandler.c ****         #if defined(CYBLE_HIDS_SERVER)
1015:.\Generated_Source\PSoC4/BLE_1_eventHandler.c ****             if((cyBle_eventHandlerFlag & CYBLE_CALLBACK) != 0u)
1016:.\Generated_Source\PSoC4/BLE_1_eventHandler.c ****             {
1017:.\Generated_Source\PSoC4/BLE_1_eventHandler.c ****                 (void)CyBle_HidssWriteEventHandler((CYBLE_GATTS_WRITE_REQ_PARAM_T *)eventParam);
1018:.\Generated_Source\PSoC4/BLE_1_eventHandler.c ****             }
1019:.\Generated_Source\PSoC4/BLE_1_eventHandler.c ****         #endif /* defined(CYBLE_HIDS_SERVER) */
1020:.\Generated_Source\PSoC4/BLE_1_eventHandler.c ****         #if defined(CYBLE_PASS_SERVER)
1021:.\Generated_Source\PSoC4/BLE_1_eventHandler.c ****             if((cyBle_eventHandlerFlag & CYBLE_CALLBACK) != 0u)
1022:.\Generated_Source\PSoC4/BLE_1_eventHandler.c ****             {
1023:.\Generated_Source\PSoC4/BLE_1_eventHandler.c ****                 (void)CyBle_PasssWriteCmdEventHandler((CYBLE_GATTS_WRITE_REQ_PARAM_T *)eventParam);
1024:.\Generated_Source\PSoC4/BLE_1_eventHandler.c ****             }
1025:.\Generated_Source\PSoC4/BLE_1_eventHandler.c ****         #endif /* defined(CYBLE_PASS_SERVER) */
1026:.\Generated_Source\PSoC4/BLE_1_eventHandler.c ****         #if defined(CYBLE_RTUS_SERVER)
1027:.\Generated_Source\PSoC4/BLE_1_eventHandler.c ****             if((cyBle_eventHandlerFlag & CYBLE_CALLBACK) != 0u)
1028:.\Generated_Source\PSoC4/BLE_1_eventHandler.c ****             {
1029:.\Generated_Source\PSoC4/BLE_1_eventHandler.c ****                 (void)CyBle_RtussWriteCmdEventHandler((CYBLE_GATTS_WRITE_REQ_PARAM_T *)eventParam);
1030:.\Generated_Source\PSoC4/BLE_1_eventHandler.c ****             }
1031:.\Generated_Source\PSoC4/BLE_1_eventHandler.c ****         #endif /* defined(CYBLE_RTUS_SERVER) */
ARM GAS  C:\Users\mliha\AppData\Local\Temp\cc428Uxc.s 			page 34


1032:.\Generated_Source\PSoC4/BLE_1_eventHandler.c ****         #if defined(CYBLE_SCPS_SERVER)
1033:.\Generated_Source\PSoC4/BLE_1_eventHandler.c ****             if((cyBle_eventHandlerFlag & CYBLE_CALLBACK) != 0u)
1034:.\Generated_Source\PSoC4/BLE_1_eventHandler.c ****             {
1035:.\Generated_Source\PSoC4/BLE_1_eventHandler.c ****                 (void)CyBle_ScpssWriteEventHandler((CYBLE_GATTS_WRITE_REQ_PARAM_T *)eventParam);
1036:.\Generated_Source\PSoC4/BLE_1_eventHandler.c ****             }
1037:.\Generated_Source\PSoC4/BLE_1_eventHandler.c ****         #endif /* defined(CYBLE_SCPS_SERVER) */
1038:.\Generated_Source\PSoC4/BLE_1_eventHandler.c ****             break;
1039:.\Generated_Source\PSoC4/BLE_1_eventHandler.c ****             
1040:.\Generated_Source\PSoC4/BLE_1_eventHandler.c ****         case CYBLE_EVT_GATTS_HANDLE_VALUE_CNF:
1041:.\Generated_Source\PSoC4/BLE_1_eventHandler.c ****             CyBle_ValueConfirmation((CYBLE_CONN_HANDLE_T *)eventParam);
 849              		.loc 1 1041 0
 850 020e 3B68     		ldr	r3, [r7]
 851 0210 181C     		mov	r0, r3
 852 0212 FFF7FEFF 		bl	CyBle_ValueConfirmation
1042:.\Generated_Source\PSoC4/BLE_1_eventHandler.c ****             break;
 853              		.loc 1 1042 0
 854 0216 00E0     		b	.L41
 855              	.L50:
1043:.\Generated_Source\PSoC4/BLE_1_eventHandler.c ****     #endif /* CYBLE_GATT_ROLE_SERVER */
1044:.\Generated_Source\PSoC4/BLE_1_eventHandler.c **** 
1045:.\Generated_Source\PSoC4/BLE_1_eventHandler.c ****     #if (CYBLE_GATT_ROLE_CLIENT)
1046:.\Generated_Source\PSoC4/BLE_1_eventHandler.c ****         case CYBLE_EVT_GATTC_READ_BY_GROUP_TYPE_RSP:
1047:.\Generated_Source\PSoC4/BLE_1_eventHandler.c ****             CyBle_ReadByGroupEventHandler((CYBLE_GATTC_READ_BY_GRP_RSP_PARAM_T *)eventParam);
1048:.\Generated_Source\PSoC4/BLE_1_eventHandler.c ****             break;
1049:.\Generated_Source\PSoC4/BLE_1_eventHandler.c **** 
1050:.\Generated_Source\PSoC4/BLE_1_eventHandler.c ****         case CYBLE_EVT_GATTC_READ_BY_TYPE_RSP:
1051:.\Generated_Source\PSoC4/BLE_1_eventHandler.c ****             CyBle_ReadByTypeEventHandler((CYBLE_GATTC_READ_BY_TYPE_RSP_PARAM_T *)eventParam);
1052:.\Generated_Source\PSoC4/BLE_1_eventHandler.c ****             break;
1053:.\Generated_Source\PSoC4/BLE_1_eventHandler.c **** 
1054:.\Generated_Source\PSoC4/BLE_1_eventHandler.c ****         case CYBLE_EVT_GATTC_FIND_INFO_RSP:
1055:.\Generated_Source\PSoC4/BLE_1_eventHandler.c ****             CyBle_FindInfoEventHandler((CYBLE_GATTC_FIND_INFO_RSP_PARAM_T *)eventParam);
1056:.\Generated_Source\PSoC4/BLE_1_eventHandler.c ****             break;
1057:.\Generated_Source\PSoC4/BLE_1_eventHandler.c **** 
1058:.\Generated_Source\PSoC4/BLE_1_eventHandler.c ****         case CYBLE_EVT_GATTC_ERROR_RSP:
1059:.\Generated_Source\PSoC4/BLE_1_eventHandler.c ****             CyBle_ErrorResponseEventHandler((CYBLE_GATTC_ERR_RSP_PARAM_T *)eventParam);
1060:.\Generated_Source\PSoC4/BLE_1_eventHandler.c ****             break;
1061:.\Generated_Source\PSoC4/BLE_1_eventHandler.c **** 
1062:.\Generated_Source\PSoC4/BLE_1_eventHandler.c ****         case CYBLE_EVT_GATTC_HANDLE_VALUE_NTF:
1063:.\Generated_Source\PSoC4/BLE_1_eventHandler.c ****         #ifdef CYBLE_ANS_CLIENT
1064:.\Generated_Source\PSoC4/BLE_1_eventHandler.c ****             CyBle_AnscNotificationEventHandler((CYBLE_GATTC_HANDLE_VALUE_NTF_PARAM_T *)eventParam);
1065:.\Generated_Source\PSoC4/BLE_1_eventHandler.c ****         #endif /* defined(CYBLE_ANS_CLIENT) */
1066:.\Generated_Source\PSoC4/BLE_1_eventHandler.c ****         #ifdef CYBLE_BAS_CLIENT
1067:.\Generated_Source\PSoC4/BLE_1_eventHandler.c ****             if((cyBle_eventHandlerFlag & CYBLE_CALLBACK) != 0u)
1068:.\Generated_Source\PSoC4/BLE_1_eventHandler.c ****             {
1069:.\Generated_Source\PSoC4/BLE_1_eventHandler.c ****                 CyBle_BascNotificationEventHandler((CYBLE_GATTC_HANDLE_VALUE_NTF_PARAM_T *)eventPar
1070:.\Generated_Source\PSoC4/BLE_1_eventHandler.c ****             }
1071:.\Generated_Source\PSoC4/BLE_1_eventHandler.c ****         #endif /* defined(CYBLE_BAS_CLIENT) */
1072:.\Generated_Source\PSoC4/BLE_1_eventHandler.c ****         #ifdef CYBLE_BLS_CLIENT
1073:.\Generated_Source\PSoC4/BLE_1_eventHandler.c ****             if((cyBle_eventHandlerFlag & CYBLE_CALLBACK) != 0u)
1074:.\Generated_Source\PSoC4/BLE_1_eventHandler.c ****             {
1075:.\Generated_Source\PSoC4/BLE_1_eventHandler.c ****                 CyBle_BlscNotificationEventHandler((CYBLE_GATTC_HANDLE_VALUE_NTF_PARAM_T *)eventPar
1076:.\Generated_Source\PSoC4/BLE_1_eventHandler.c ****             }
1077:.\Generated_Source\PSoC4/BLE_1_eventHandler.c ****         #endif /* defined(CYBLE_BLS_CLIENT) */
1078:.\Generated_Source\PSoC4/BLE_1_eventHandler.c ****         #ifdef CYBLE_CPS_CLIENT
1079:.\Generated_Source\PSoC4/BLE_1_eventHandler.c ****             if((cyBle_eventHandlerFlag & CYBLE_CALLBACK) != 0u)
1080:.\Generated_Source\PSoC4/BLE_1_eventHandler.c ****             {
1081:.\Generated_Source\PSoC4/BLE_1_eventHandler.c ****                 CyBle_CpscNotificationEventHandler((CYBLE_GATTC_HANDLE_VALUE_NTF_PARAM_T *)eventPar
ARM GAS  C:\Users\mliha\AppData\Local\Temp\cc428Uxc.s 			page 35


1082:.\Generated_Source\PSoC4/BLE_1_eventHandler.c ****             }
1083:.\Generated_Source\PSoC4/BLE_1_eventHandler.c ****         #endif /* defined(CYBLE_CPS_CLIENT) */
1084:.\Generated_Source\PSoC4/BLE_1_eventHandler.c ****         #ifdef CYBLE_CSCS_CLIENT
1085:.\Generated_Source\PSoC4/BLE_1_eventHandler.c ****             if((cyBle_eventHandlerFlag & CYBLE_CALLBACK) != 0u)
1086:.\Generated_Source\PSoC4/BLE_1_eventHandler.c ****             {
1087:.\Generated_Source\PSoC4/BLE_1_eventHandler.c ****                 CyBle_CscscNotificationEventHandler((CYBLE_GATTC_HANDLE_VALUE_NTF_PARAM_T *)eventPa
1088:.\Generated_Source\PSoC4/BLE_1_eventHandler.c ****             }
1089:.\Generated_Source\PSoC4/BLE_1_eventHandler.c ****         #endif /* defined(CYBLE_CSCS_CLIENT) */
1090:.\Generated_Source\PSoC4/BLE_1_eventHandler.c ****         #ifdef CYBLE_CTS_CLIENT
1091:.\Generated_Source\PSoC4/BLE_1_eventHandler.c ****             if((cyBle_eventHandlerFlag & CYBLE_CALLBACK) != 0u)
1092:.\Generated_Source\PSoC4/BLE_1_eventHandler.c ****             {
1093:.\Generated_Source\PSoC4/BLE_1_eventHandler.c ****                 CyBle_CtscNotificationEventHandler((CYBLE_GATTC_HANDLE_VALUE_NTF_PARAM_T *)eventPar
1094:.\Generated_Source\PSoC4/BLE_1_eventHandler.c ****             }
1095:.\Generated_Source\PSoC4/BLE_1_eventHandler.c ****         #endif /* defined(CYBLE_CTS_CLIENT) */
1096:.\Generated_Source\PSoC4/BLE_1_eventHandler.c ****         #ifdef CYBLE_GLS_CLIENT
1097:.\Generated_Source\PSoC4/BLE_1_eventHandler.c ****             if((cyBle_eventHandlerFlag & CYBLE_CALLBACK) != 0u)
1098:.\Generated_Source\PSoC4/BLE_1_eventHandler.c ****             {
1099:.\Generated_Source\PSoC4/BLE_1_eventHandler.c ****                 CyBle_GlscNotificationEventHandler((CYBLE_GATTC_HANDLE_VALUE_NTF_PARAM_T *)eventPar
1100:.\Generated_Source\PSoC4/BLE_1_eventHandler.c ****             }
1101:.\Generated_Source\PSoC4/BLE_1_eventHandler.c ****         #endif /* defined(CYBLE_GLS_CLIENT) */
1102:.\Generated_Source\PSoC4/BLE_1_eventHandler.c ****         #ifdef CYBLE_HIDS_CLIENT
1103:.\Generated_Source\PSoC4/BLE_1_eventHandler.c ****             if((cyBle_eventHandlerFlag & CYBLE_CALLBACK) != 0u)
1104:.\Generated_Source\PSoC4/BLE_1_eventHandler.c ****             {
1105:.\Generated_Source\PSoC4/BLE_1_eventHandler.c ****                 CyBle_HidscNotificationEventHandler((CYBLE_GATTC_HANDLE_VALUE_NTF_PARAM_T *)eventPa
1106:.\Generated_Source\PSoC4/BLE_1_eventHandler.c ****             }
1107:.\Generated_Source\PSoC4/BLE_1_eventHandler.c ****         #endif /* defined(CYBLE_HIDS_CLIENT) */
1108:.\Generated_Source\PSoC4/BLE_1_eventHandler.c ****         #ifdef CYBLE_HRS_CLIENT
1109:.\Generated_Source\PSoC4/BLE_1_eventHandler.c ****             if((cyBle_eventHandlerFlag & CYBLE_CALLBACK) != 0u)
1110:.\Generated_Source\PSoC4/BLE_1_eventHandler.c ****             {
1111:.\Generated_Source\PSoC4/BLE_1_eventHandler.c ****                 CyBle_HrscNotificationEventHandler((CYBLE_GATTC_HANDLE_VALUE_NTF_PARAM_T *)eventPar
1112:.\Generated_Source\PSoC4/BLE_1_eventHandler.c ****             }
1113:.\Generated_Source\PSoC4/BLE_1_eventHandler.c ****         #endif /* defined(CYBLE_HRS_CLIENT) */
1114:.\Generated_Source\PSoC4/BLE_1_eventHandler.c ****         #ifdef CYBLE_HTS_CLIENT
1115:.\Generated_Source\PSoC4/BLE_1_eventHandler.c ****             if((cyBle_eventHandlerFlag & CYBLE_CALLBACK) != 0u)
1116:.\Generated_Source\PSoC4/BLE_1_eventHandler.c ****             {
1117:.\Generated_Source\PSoC4/BLE_1_eventHandler.c ****                 CyBle_HtscNotificationEventHandler((CYBLE_GATTC_HANDLE_VALUE_NTF_PARAM_T *)eventPar
1118:.\Generated_Source\PSoC4/BLE_1_eventHandler.c ****             }
1119:.\Generated_Source\PSoC4/BLE_1_eventHandler.c ****         #endif /* defined(CYBLE_HTS_CLIENT) */
1120:.\Generated_Source\PSoC4/BLE_1_eventHandler.c ****         #ifdef CYBLE_LNS_CLIENT
1121:.\Generated_Source\PSoC4/BLE_1_eventHandler.c ****             if((cyBle_eventHandlerFlag & CYBLE_CALLBACK) != 0u)
1122:.\Generated_Source\PSoC4/BLE_1_eventHandler.c ****             {
1123:.\Generated_Source\PSoC4/BLE_1_eventHandler.c ****                 CyBle_LnscNotificationEventHandler((CYBLE_GATTC_HANDLE_VALUE_NTF_PARAM_T *)eventPar
1124:.\Generated_Source\PSoC4/BLE_1_eventHandler.c ****             }
1125:.\Generated_Source\PSoC4/BLE_1_eventHandler.c ****         #endif /* defined(CYBLE_LNS_CLIENT) */
1126:.\Generated_Source\PSoC4/BLE_1_eventHandler.c ****         #ifdef CYBLE_PASS_CLIENT
1127:.\Generated_Source\PSoC4/BLE_1_eventHandler.c ****             if((cyBle_eventHandlerFlag & CYBLE_CALLBACK) != 0u)
1128:.\Generated_Source\PSoC4/BLE_1_eventHandler.c ****             {
1129:.\Generated_Source\PSoC4/BLE_1_eventHandler.c ****                 CyBle_PasscNotificationEventHandler((CYBLE_GATTC_HANDLE_VALUE_NTF_PARAM_T *)eventPa
1130:.\Generated_Source\PSoC4/BLE_1_eventHandler.c ****             }
1131:.\Generated_Source\PSoC4/BLE_1_eventHandler.c ****         #endif /* defined(CYBLE_PASS_CLIENT) */
1132:.\Generated_Source\PSoC4/BLE_1_eventHandler.c ****         #ifdef CYBLE_RSCS_CLIENT
1133:.\Generated_Source\PSoC4/BLE_1_eventHandler.c ****             if((cyBle_eventHandlerFlag & CYBLE_CALLBACK) != 0u)
1134:.\Generated_Source\PSoC4/BLE_1_eventHandler.c ****             {
1135:.\Generated_Source\PSoC4/BLE_1_eventHandler.c ****                 CyBle_RscscNotificationEventHandler((CYBLE_GATTC_HANDLE_VALUE_NTF_PARAM_T *)eventPa
1136:.\Generated_Source\PSoC4/BLE_1_eventHandler.c ****             }
1137:.\Generated_Source\PSoC4/BLE_1_eventHandler.c ****         #endif /* defined(CYBLE_RSCS_CLIENT) */
1138:.\Generated_Source\PSoC4/BLE_1_eventHandler.c ****         #ifdef CYBLE_SCPS_CLIENT
ARM GAS  C:\Users\mliha\AppData\Local\Temp\cc428Uxc.s 			page 36


1139:.\Generated_Source\PSoC4/BLE_1_eventHandler.c ****             if((cyBle_eventHandlerFlag & CYBLE_CALLBACK) != 0u)
1140:.\Generated_Source\PSoC4/BLE_1_eventHandler.c ****             {
1141:.\Generated_Source\PSoC4/BLE_1_eventHandler.c ****                 CyBle_ScpscNotificationEventHandler((CYBLE_GATTC_HANDLE_VALUE_NTF_PARAM_T *)eventPa
1142:.\Generated_Source\PSoC4/BLE_1_eventHandler.c ****             }
1143:.\Generated_Source\PSoC4/BLE_1_eventHandler.c ****         #endif /* defined(CYBLE_SCPS_CLIENT) */
1144:.\Generated_Source\PSoC4/BLE_1_eventHandler.c ****         #ifdef CYBLE_TPS_CLIENT
1145:.\Generated_Source\PSoC4/BLE_1_eventHandler.c ****             if((cyBle_eventHandlerFlag & CYBLE_CALLBACK) != 0u)
1146:.\Generated_Source\PSoC4/BLE_1_eventHandler.c ****             {
1147:.\Generated_Source\PSoC4/BLE_1_eventHandler.c ****                 CyBle_TpscNotificationEventHandler((CYBLE_GATTC_HANDLE_VALUE_NTF_PARAM_T *)eventPar
1148:.\Generated_Source\PSoC4/BLE_1_eventHandler.c ****             }
1149:.\Generated_Source\PSoC4/BLE_1_eventHandler.c ****         #endif /* defined(CYBLE_TPS_CLIENT) */
1150:.\Generated_Source\PSoC4/BLE_1_eventHandler.c ****             break;
1151:.\Generated_Source\PSoC4/BLE_1_eventHandler.c **** 
1152:.\Generated_Source\PSoC4/BLE_1_eventHandler.c ****         case CYBLE_EVT_GATTC_HANDLE_VALUE_IND:
1153:.\Generated_Source\PSoC4/BLE_1_eventHandler.c ****             CyBle_GattcIndicationEventHandler((CYBLE_GATTC_HANDLE_VALUE_IND_PARAM_T *)eventParam);
1154:.\Generated_Source\PSoC4/BLE_1_eventHandler.c ****         #ifdef CYBLE_BLS_CLIENT
1155:.\Generated_Source\PSoC4/BLE_1_eventHandler.c ****             if((cyBle_eventHandlerFlag & CYBLE_CALLBACK) != 0u)
1156:.\Generated_Source\PSoC4/BLE_1_eventHandler.c ****             {
1157:.\Generated_Source\PSoC4/BLE_1_eventHandler.c ****                 CyBle_BlscIndicationEventHandler((CYBLE_GATTC_HANDLE_VALUE_IND_PARAM_T *)eventParam
1158:.\Generated_Source\PSoC4/BLE_1_eventHandler.c ****             }
1159:.\Generated_Source\PSoC4/BLE_1_eventHandler.c ****         #endif /* defined(CYBLE_BLS_CLIENT) */
1160:.\Generated_Source\PSoC4/BLE_1_eventHandler.c ****         #ifdef CYBLE_CPS_CLIENT
1161:.\Generated_Source\PSoC4/BLE_1_eventHandler.c ****             if((cyBle_eventHandlerFlag & CYBLE_CALLBACK) != 0u)
1162:.\Generated_Source\PSoC4/BLE_1_eventHandler.c ****             {
1163:.\Generated_Source\PSoC4/BLE_1_eventHandler.c ****                 CyBle_CpscIndicationEventHandler((CYBLE_GATTC_HANDLE_VALUE_IND_PARAM_T *)eventParam
1164:.\Generated_Source\PSoC4/BLE_1_eventHandler.c ****             }
1165:.\Generated_Source\PSoC4/BLE_1_eventHandler.c ****         #endif /* defined(CYBLE_CPS_CLIENT) */
1166:.\Generated_Source\PSoC4/BLE_1_eventHandler.c ****         #ifdef CYBLE_CSCS_CLIENT
1167:.\Generated_Source\PSoC4/BLE_1_eventHandler.c ****             if((cyBle_eventHandlerFlag & CYBLE_CALLBACK) != 0u)
1168:.\Generated_Source\PSoC4/BLE_1_eventHandler.c ****             {
1169:.\Generated_Source\PSoC4/BLE_1_eventHandler.c ****                 CyBle_CscscIndicationEventHandler((CYBLE_GATTC_HANDLE_VALUE_IND_PARAM_T *)eventPara
1170:.\Generated_Source\PSoC4/BLE_1_eventHandler.c ****             }
1171:.\Generated_Source\PSoC4/BLE_1_eventHandler.c ****         #endif /* defined(CYBLE_CSCS_CLIENT) */
1172:.\Generated_Source\PSoC4/BLE_1_eventHandler.c ****         #ifdef CYBLE_GLS_CLIENT
1173:.\Generated_Source\PSoC4/BLE_1_eventHandler.c ****             if((cyBle_eventHandlerFlag & CYBLE_CALLBACK) != 0u)
1174:.\Generated_Source\PSoC4/BLE_1_eventHandler.c ****             {
1175:.\Generated_Source\PSoC4/BLE_1_eventHandler.c ****                 CyBle_GlscIndicationEventHandler((CYBLE_GATTC_HANDLE_VALUE_IND_PARAM_T *)eventParam
1176:.\Generated_Source\PSoC4/BLE_1_eventHandler.c ****             }
1177:.\Generated_Source\PSoC4/BLE_1_eventHandler.c ****         #endif /* defined(CYBLE_GLS_CLIENT) */
1178:.\Generated_Source\PSoC4/BLE_1_eventHandler.c ****         #ifdef CYBLE_HTS_CLIENT
1179:.\Generated_Source\PSoC4/BLE_1_eventHandler.c ****             if((cyBle_eventHandlerFlag & CYBLE_CALLBACK) != 0u)
1180:.\Generated_Source\PSoC4/BLE_1_eventHandler.c ****             {
1181:.\Generated_Source\PSoC4/BLE_1_eventHandler.c ****                 CyBle_HtscIndicationEventHandler((CYBLE_GATTC_HANDLE_VALUE_IND_PARAM_T *)eventParam
1182:.\Generated_Source\PSoC4/BLE_1_eventHandler.c ****             }
1183:.\Generated_Source\PSoC4/BLE_1_eventHandler.c ****         #endif /* defined(CYBLE_HTS_CLIENT) */
1184:.\Generated_Source\PSoC4/BLE_1_eventHandler.c ****         #ifdef CYBLE_LNS_CLIENT
1185:.\Generated_Source\PSoC4/BLE_1_eventHandler.c ****             if((cyBle_eventHandlerFlag & CYBLE_CALLBACK) != 0u)
1186:.\Generated_Source\PSoC4/BLE_1_eventHandler.c ****             {
1187:.\Generated_Source\PSoC4/BLE_1_eventHandler.c ****                 CyBle_LnscIndicationEventHandler((CYBLE_GATTC_HANDLE_VALUE_IND_PARAM_T *)eventParam
1188:.\Generated_Source\PSoC4/BLE_1_eventHandler.c ****             }
1189:.\Generated_Source\PSoC4/BLE_1_eventHandler.c ****         #endif /* defined(CYBLE_LNS_CLIENT) */
1190:.\Generated_Source\PSoC4/BLE_1_eventHandler.c ****         #ifdef CYBLE_RSCS_CLIENT
1191:.\Generated_Source\PSoC4/BLE_1_eventHandler.c ****             if((cyBle_eventHandlerFlag & CYBLE_CALLBACK) != 0u)
1192:.\Generated_Source\PSoC4/BLE_1_eventHandler.c ****             {
1193:.\Generated_Source\PSoC4/BLE_1_eventHandler.c ****                 CyBle_RscscIndicationEventHandler((CYBLE_GATTC_HANDLE_VALUE_IND_PARAM_T *)eventPara
1194:.\Generated_Source\PSoC4/BLE_1_eventHandler.c ****             }
1195:.\Generated_Source\PSoC4/BLE_1_eventHandler.c ****         #endif /* defined(CYBLE_RSCS_CLIENT) */
ARM GAS  C:\Users\mliha\AppData\Local\Temp\cc428Uxc.s 			page 37


1196:.\Generated_Source\PSoC4/BLE_1_eventHandler.c ****             /* Respond with a Handle Value Confirmation when request handled */
1197:.\Generated_Source\PSoC4/BLE_1_eventHandler.c ****             if((cyBle_eventHandlerFlag & CYBLE_CALLBACK) == 0u)
1198:.\Generated_Source\PSoC4/BLE_1_eventHandler.c ****             {
1199:.\Generated_Source\PSoC4/BLE_1_eventHandler.c ****                 (void)CyBle_GattcConfirmation(((CYBLE_GATTC_HANDLE_VALUE_IND_PARAM_T *)eventParam)-
1200:.\Generated_Source\PSoC4/BLE_1_eventHandler.c ****             }
1201:.\Generated_Source\PSoC4/BLE_1_eventHandler.c ****             break;
1202:.\Generated_Source\PSoC4/BLE_1_eventHandler.c ****         
1203:.\Generated_Source\PSoC4/BLE_1_eventHandler.c ****         case CYBLE_EVT_GATTC_READ_RSP:
1204:.\Generated_Source\PSoC4/BLE_1_eventHandler.c ****             #ifdef CYBLE_ANS_CLIENT
1205:.\Generated_Source\PSoC4/BLE_1_eventHandler.c ****                 CyBle_AnscReadResponseEventHandler((CYBLE_GATTC_READ_RSP_PARAM_T *)eventParam);
1206:.\Generated_Source\PSoC4/BLE_1_eventHandler.c ****             #endif /* CYBLE_ANS_CLIENT */
1207:.\Generated_Source\PSoC4/BLE_1_eventHandler.c ****             #ifdef CYBLE_BAS_CLIENT
1208:.\Generated_Source\PSoC4/BLE_1_eventHandler.c ****                 if((cyBle_eventHandlerFlag & CYBLE_CALLBACK) != 0u)
1209:.\Generated_Source\PSoC4/BLE_1_eventHandler.c ****                 {
1210:.\Generated_Source\PSoC4/BLE_1_eventHandler.c ****                     CyBle_BascReadResponseEventHandler((CYBLE_GATTC_READ_RSP_PARAM_T *)eventParam);
1211:.\Generated_Source\PSoC4/BLE_1_eventHandler.c ****                 }
1212:.\Generated_Source\PSoC4/BLE_1_eventHandler.c ****             #endif /* CYBLE_BAS_CLIENT */
1213:.\Generated_Source\PSoC4/BLE_1_eventHandler.c ****             #ifdef CYBLE_BLS_CLIENT
1214:.\Generated_Source\PSoC4/BLE_1_eventHandler.c ****                 if((cyBle_eventHandlerFlag & CYBLE_CALLBACK) != 0u)
1215:.\Generated_Source\PSoC4/BLE_1_eventHandler.c ****                 {
1216:.\Generated_Source\PSoC4/BLE_1_eventHandler.c ****                     CyBle_BlscReadResponseEventHandler((CYBLE_GATTC_READ_RSP_PARAM_T *)eventParam);
1217:.\Generated_Source\PSoC4/BLE_1_eventHandler.c ****                 }
1218:.\Generated_Source\PSoC4/BLE_1_eventHandler.c ****             #endif /* CYBLE_BLS_CLIENT */
1219:.\Generated_Source\PSoC4/BLE_1_eventHandler.c ****             #ifdef CYBLE_CPS_CLIENT
1220:.\Generated_Source\PSoC4/BLE_1_eventHandler.c ****                 if((cyBle_eventHandlerFlag & CYBLE_CALLBACK) != 0u)
1221:.\Generated_Source\PSoC4/BLE_1_eventHandler.c ****                 {
1222:.\Generated_Source\PSoC4/BLE_1_eventHandler.c ****                     CyBle_CpscReadResponseEventHandler((CYBLE_GATTC_READ_RSP_PARAM_T *)eventParam);
1223:.\Generated_Source\PSoC4/BLE_1_eventHandler.c ****                 }
1224:.\Generated_Source\PSoC4/BLE_1_eventHandler.c ****             #endif /* CYBLE_CPS_CLIENT */
1225:.\Generated_Source\PSoC4/BLE_1_eventHandler.c ****             #ifdef CYBLE_CSCS_CLIENT
1226:.\Generated_Source\PSoC4/BLE_1_eventHandler.c ****                 if((cyBle_eventHandlerFlag & CYBLE_CALLBACK) != 0u)
1227:.\Generated_Source\PSoC4/BLE_1_eventHandler.c ****                 {
1228:.\Generated_Source\PSoC4/BLE_1_eventHandler.c ****                     CyBle_CscscReadResponseEventHandler((CYBLE_GATTC_READ_RSP_PARAM_T *)eventParam)
1229:.\Generated_Source\PSoC4/BLE_1_eventHandler.c ****                 }
1230:.\Generated_Source\PSoC4/BLE_1_eventHandler.c ****             #endif /* CYBLE_CSCS_CLIENT */
1231:.\Generated_Source\PSoC4/BLE_1_eventHandler.c ****             #ifdef CYBLE_CTS_CLIENT
1232:.\Generated_Source\PSoC4/BLE_1_eventHandler.c ****                 if((cyBle_eventHandlerFlag & CYBLE_CALLBACK) != 0u)
1233:.\Generated_Source\PSoC4/BLE_1_eventHandler.c ****                 {
1234:.\Generated_Source\PSoC4/BLE_1_eventHandler.c ****                     CyBle_CtscReadResponseEventHandler((CYBLE_GATTC_READ_RSP_PARAM_T *)eventParam);
1235:.\Generated_Source\PSoC4/BLE_1_eventHandler.c ****                 }
1236:.\Generated_Source\PSoC4/BLE_1_eventHandler.c ****             #endif /* CYBLE_BAS_CLIENT */
1237:.\Generated_Source\PSoC4/BLE_1_eventHandler.c ****             #ifdef CYBLE_DIS_CLIENT
1238:.\Generated_Source\PSoC4/BLE_1_eventHandler.c ****                 if((cyBle_eventHandlerFlag & CYBLE_CALLBACK) != 0u)
1239:.\Generated_Source\PSoC4/BLE_1_eventHandler.c ****                 {
1240:.\Generated_Source\PSoC4/BLE_1_eventHandler.c ****                     CyBle_DiscReadResponseEventHandler((CYBLE_GATTC_READ_RSP_PARAM_T *)eventParam);
1241:.\Generated_Source\PSoC4/BLE_1_eventHandler.c ****                 }
1242:.\Generated_Source\PSoC4/BLE_1_eventHandler.c ****             #endif /* CYBLE_DIS_CLIENT */
1243:.\Generated_Source\PSoC4/BLE_1_eventHandler.c ****             #ifdef CYBLE_GLS_CLIENT
1244:.\Generated_Source\PSoC4/BLE_1_eventHandler.c ****                 if((cyBle_eventHandlerFlag & CYBLE_CALLBACK) != 0u)
1245:.\Generated_Source\PSoC4/BLE_1_eventHandler.c ****                 {
1246:.\Generated_Source\PSoC4/BLE_1_eventHandler.c ****                     CyBle_GlscReadResponseEventHandler((CYBLE_GATTC_READ_RSP_PARAM_T *)eventParam);
1247:.\Generated_Source\PSoC4/BLE_1_eventHandler.c ****                 }
1248:.\Generated_Source\PSoC4/BLE_1_eventHandler.c ****             #endif /* CYBLE_GLS_CLIENT */
1249:.\Generated_Source\PSoC4/BLE_1_eventHandler.c ****             #ifdef CYBLE_HIDS_CLIENT
1250:.\Generated_Source\PSoC4/BLE_1_eventHandler.c ****                 if((cyBle_eventHandlerFlag & CYBLE_CALLBACK) != 0u)
1251:.\Generated_Source\PSoC4/BLE_1_eventHandler.c ****                 {
1252:.\Generated_Source\PSoC4/BLE_1_eventHandler.c ****                     CyBle_HidscReadResponseEventHandler((CYBLE_GATTC_READ_RSP_PARAM_T *)eventParam)
ARM GAS  C:\Users\mliha\AppData\Local\Temp\cc428Uxc.s 			page 38


1253:.\Generated_Source\PSoC4/BLE_1_eventHandler.c ****                 }
1254:.\Generated_Source\PSoC4/BLE_1_eventHandler.c ****             #endif /* CYBLE_HIDS_CLIENT */
1255:.\Generated_Source\PSoC4/BLE_1_eventHandler.c ****             #ifdef CYBLE_HRS_CLIENT
1256:.\Generated_Source\PSoC4/BLE_1_eventHandler.c ****                 if((cyBle_eventHandlerFlag & CYBLE_CALLBACK) != 0u)
1257:.\Generated_Source\PSoC4/BLE_1_eventHandler.c ****                 {
1258:.\Generated_Source\PSoC4/BLE_1_eventHandler.c ****                     CyBle_HrscReadResponseEventHandler((CYBLE_GATTC_READ_RSP_PARAM_T *)eventParam);
1259:.\Generated_Source\PSoC4/BLE_1_eventHandler.c ****                 }
1260:.\Generated_Source\PSoC4/BLE_1_eventHandler.c ****             #endif /* CYBLE_HRS_CLIENT */
1261:.\Generated_Source\PSoC4/BLE_1_eventHandler.c ****             #ifdef CYBLE_HTS_CLIENT
1262:.\Generated_Source\PSoC4/BLE_1_eventHandler.c ****                 if((cyBle_eventHandlerFlag & CYBLE_CALLBACK) != 0u)
1263:.\Generated_Source\PSoC4/BLE_1_eventHandler.c ****                 {
1264:.\Generated_Source\PSoC4/BLE_1_eventHandler.c ****                     CyBle_HtscReadResponseEventHandler((CYBLE_GATTC_READ_RSP_PARAM_T *)eventParam);
1265:.\Generated_Source\PSoC4/BLE_1_eventHandler.c ****                 }
1266:.\Generated_Source\PSoC4/BLE_1_eventHandler.c ****             #endif /* CYBLE_HTS_CLIENT */
1267:.\Generated_Source\PSoC4/BLE_1_eventHandler.c ****             #ifdef CYBLE_LLS_CLIENT
1268:.\Generated_Source\PSoC4/BLE_1_eventHandler.c ****                 if((cyBle_eventHandlerFlag & CYBLE_CALLBACK) != 0u)
1269:.\Generated_Source\PSoC4/BLE_1_eventHandler.c ****                 {
1270:.\Generated_Source\PSoC4/BLE_1_eventHandler.c ****                     CyBle_LlscReadResponseEventHandler((CYBLE_GATTC_READ_RSP_PARAM_T *)eventParam);
1271:.\Generated_Source\PSoC4/BLE_1_eventHandler.c ****                 }
1272:.\Generated_Source\PSoC4/BLE_1_eventHandler.c ****             #endif /* CYBLE_LLS_CLIENT */
1273:.\Generated_Source\PSoC4/BLE_1_eventHandler.c ****             #ifdef CYBLE_LNS_CLIENT
1274:.\Generated_Source\PSoC4/BLE_1_eventHandler.c ****                 if((cyBle_eventHandlerFlag & CYBLE_CALLBACK) != 0u)
1275:.\Generated_Source\PSoC4/BLE_1_eventHandler.c ****                 {
1276:.\Generated_Source\PSoC4/BLE_1_eventHandler.c ****                     CyBle_LnscReadResponseEventHandler((CYBLE_GATTC_READ_RSP_PARAM_T *)eventParam);
1277:.\Generated_Source\PSoC4/BLE_1_eventHandler.c ****                 }
1278:.\Generated_Source\PSoC4/BLE_1_eventHandler.c ****             #endif /* CYBLE_LNS_CLIENT */
1279:.\Generated_Source\PSoC4/BLE_1_eventHandler.c ****             #ifdef CYBLE_NDCS_CLIENT
1280:.\Generated_Source\PSoC4/BLE_1_eventHandler.c ****                 if((cyBle_eventHandlerFlag & CYBLE_CALLBACK) != 0u)
1281:.\Generated_Source\PSoC4/BLE_1_eventHandler.c ****                 {
1282:.\Generated_Source\PSoC4/BLE_1_eventHandler.c ****                     CyBle_NdcscReadResponseEventHandler((CYBLE_GATTC_READ_RSP_PARAM_T *)eventParam)
1283:.\Generated_Source\PSoC4/BLE_1_eventHandler.c ****                 }
1284:.\Generated_Source\PSoC4/BLE_1_eventHandler.c ****             #endif /* CYBLE_NDCS_CLIENT */
1285:.\Generated_Source\PSoC4/BLE_1_eventHandler.c ****             #ifdef CYBLE_PASS_CLIENT
1286:.\Generated_Source\PSoC4/BLE_1_eventHandler.c ****                 if((cyBle_eventHandlerFlag & CYBLE_CALLBACK) != 0u)
1287:.\Generated_Source\PSoC4/BLE_1_eventHandler.c ****                 {
1288:.\Generated_Source\PSoC4/BLE_1_eventHandler.c ****                     CyBle_PasscReadResponseEventHandler((CYBLE_GATTC_READ_RSP_PARAM_T *)eventParam)
1289:.\Generated_Source\PSoC4/BLE_1_eventHandler.c ****                 }
1290:.\Generated_Source\PSoC4/BLE_1_eventHandler.c ****             #endif /* CYBLE_PASS_CLIENT */
1291:.\Generated_Source\PSoC4/BLE_1_eventHandler.c ****             #ifdef CYBLE_RSCS_CLIENT
1292:.\Generated_Source\PSoC4/BLE_1_eventHandler.c ****                 if((cyBle_eventHandlerFlag & CYBLE_CALLBACK) != 0u)
1293:.\Generated_Source\PSoC4/BLE_1_eventHandler.c ****                 {
1294:.\Generated_Source\PSoC4/BLE_1_eventHandler.c ****                     CyBle_RscscReadResponseEventHandler((CYBLE_GATTC_READ_RSP_PARAM_T *)eventParam)
1295:.\Generated_Source\PSoC4/BLE_1_eventHandler.c ****                 }
1296:.\Generated_Source\PSoC4/BLE_1_eventHandler.c ****             #endif /* CYBLE_RSCS_CLIENT */
1297:.\Generated_Source\PSoC4/BLE_1_eventHandler.c ****             #ifdef CYBLE_RTUS_CLIENT
1298:.\Generated_Source\PSoC4/BLE_1_eventHandler.c ****                 if((cyBle_eventHandlerFlag & CYBLE_CALLBACK) != 0u)
1299:.\Generated_Source\PSoC4/BLE_1_eventHandler.c ****                 {
1300:.\Generated_Source\PSoC4/BLE_1_eventHandler.c ****                     CyBle_RtuscReadResponseEventHandler((CYBLE_GATTC_READ_RSP_PARAM_T *)eventParam)
1301:.\Generated_Source\PSoC4/BLE_1_eventHandler.c ****                 }
1302:.\Generated_Source\PSoC4/BLE_1_eventHandler.c ****             #endif /* CYBLE_RTUS_CLIENT */
1303:.\Generated_Source\PSoC4/BLE_1_eventHandler.c ****             #ifdef CYBLE_SCPS_CLIENT
1304:.\Generated_Source\PSoC4/BLE_1_eventHandler.c ****                 if((cyBle_eventHandlerFlag & CYBLE_CALLBACK) != 0u)
1305:.\Generated_Source\PSoC4/BLE_1_eventHandler.c ****                 {
1306:.\Generated_Source\PSoC4/BLE_1_eventHandler.c ****                     CyBle_ScpscReadResponseEventHandler((CYBLE_GATTC_READ_RSP_PARAM_T *)eventParam)
1307:.\Generated_Source\PSoC4/BLE_1_eventHandler.c ****                 }
1308:.\Generated_Source\PSoC4/BLE_1_eventHandler.c ****             #endif /* CYBLE_SCPS_CLIENT */
1309:.\Generated_Source\PSoC4/BLE_1_eventHandler.c ****             #ifdef CYBLE_TPS_CLIENT
ARM GAS  C:\Users\mliha\AppData\Local\Temp\cc428Uxc.s 			page 39


1310:.\Generated_Source\PSoC4/BLE_1_eventHandler.c ****                 if((cyBle_eventHandlerFlag & CYBLE_CALLBACK) != 0u)
1311:.\Generated_Source\PSoC4/BLE_1_eventHandler.c ****                 {
1312:.\Generated_Source\PSoC4/BLE_1_eventHandler.c ****                     CyBle_TpscReadResponseEventHandler((CYBLE_GATTC_READ_RSP_PARAM_T *)eventParam);
1313:.\Generated_Source\PSoC4/BLE_1_eventHandler.c ****                 }
1314:.\Generated_Source\PSoC4/BLE_1_eventHandler.c ****             #endif /* CYBLE_TPS_CLIENT */
1315:.\Generated_Source\PSoC4/BLE_1_eventHandler.c ****             break;
1316:.\Generated_Source\PSoC4/BLE_1_eventHandler.c **** 
1317:.\Generated_Source\PSoC4/BLE_1_eventHandler.c ****         case CYBLE_EVT_GATTC_WRITE_RSP:
1318:.\Generated_Source\PSoC4/BLE_1_eventHandler.c ****             CyBle_GattcWriteResponseEventHandler((CYBLE_CONN_HANDLE_T *)eventParam);
1319:.\Generated_Source\PSoC4/BLE_1_eventHandler.c ****             break;
1320:.\Generated_Source\PSoC4/BLE_1_eventHandler.c ****             
1321:.\Generated_Source\PSoC4/BLE_1_eventHandler.c ****     #endif /* CYBLE_GATT_ROLE_CLIENT */
1322:.\Generated_Source\PSoC4/BLE_1_eventHandler.c **** 
1323:.\Generated_Source\PSoC4/BLE_1_eventHandler.c ****     #if((CYBLE_GAP_ROLE_PERIPHERAL || CYBLE_GAP_ROLE_CENTRAL) && (CYBLE_BONDING_REQUIREMENT == CYBL
1324:.\Generated_Source\PSoC4/BLE_1_eventHandler.c **** 
1325:.\Generated_Source\PSoC4/BLE_1_eventHandler.c ****         case CYBLE_EVT_PENDING_FLASH_WRITE:
1326:.\Generated_Source\PSoC4/BLE_1_eventHandler.c ****             cyBle_pendingFlashWrite |= CYBLE_PENDING_STACK_FLASH_WRITE_BIT;
1327:.\Generated_Source\PSoC4/BLE_1_eventHandler.c ****             break;
1328:.\Generated_Source\PSoC4/BLE_1_eventHandler.c ****         
1329:.\Generated_Source\PSoC4/BLE_1_eventHandler.c ****     #endif  /* (CYBLE_BONDING_REQUIREMENT == CYBLE_BONDING_YES) */
1330:.\Generated_Source\PSoC4/BLE_1_eventHandler.c ****         default:
1331:.\Generated_Source\PSoC4/BLE_1_eventHandler.c ****             break;
 856              		.loc 1 1331 0
 857 0218 C046     		mov	r8, r8
 858              	.L41:
1332:.\Generated_Source\PSoC4/BLE_1_eventHandler.c ****     }
1333:.\Generated_Source\PSoC4/BLE_1_eventHandler.c **** 
1334:.\Generated_Source\PSoC4/BLE_1_eventHandler.c ****     if(0u != (cyBle_eventHandlerFlag & (CYBLE_CALLBACK | CYBLE_ENABLE_ALL_EVENTS))) 
 859              		.loc 1 1334 0
 860 021a 0D4B     		ldr	r3, .L51
 861 021c 1B78     		ldrb	r3, [r3]
 862 021e DBB2     		uxtb	r3, r3
 863 0220 1A1C     		mov	r2, r3
 864 0222 1123     		mov	r3, #17
 865 0224 1340     		and	r3, r2
 866 0226 0FD0     		beq	.L21
1335:.\Generated_Source\PSoC4/BLE_1_eventHandler.c ****     {
1336:.\Generated_Source\PSoC4/BLE_1_eventHandler.c ****         cyBle_eventHandlerFlag &= (uint8)~CYBLE_CALLBACK;
 867              		.loc 1 1336 0
 868 0228 094B     		ldr	r3, .L51
 869 022a 1B78     		ldrb	r3, [r3]
 870 022c DBB2     		uxtb	r3, r3
 871 022e 0122     		mov	r2, #1
 872 0230 9343     		bic	r3, r2
 873 0232 DAB2     		uxtb	r2, r3
 874 0234 064B     		ldr	r3, .L51
 875 0236 1A70     		strb	r2, [r3]
1337:.\Generated_Source\PSoC4/BLE_1_eventHandler.c ****         CyBle_ApplCallback((uint32)eventCode, eventParam);
 876              		.loc 1 1337 0
 877 0238 124B     		ldr	r3, .L51+52
 878 023a 1B68     		ldr	r3, [r3]
 879 023c FA1D     		add	r2, r7, #7
 880 023e 1178     		ldrb	r1, [r2]
 881 0240 3A68     		ldr	r2, [r7]
 882 0242 081C     		mov	r0, r1
 883 0244 111C     		mov	r1, r2
 884 0246 9847     		blx	r3
ARM GAS  C:\Users\mliha\AppData\Local\Temp\cc428Uxc.s 			page 40


 885              	.L21:
1338:.\Generated_Source\PSoC4/BLE_1_eventHandler.c ****     }
1339:.\Generated_Source\PSoC4/BLE_1_eventHandler.c **** 
1340:.\Generated_Source\PSoC4/BLE_1_eventHandler.c **** }
 886              		.loc 1 1340 0
 887 0248 BD46     		mov	sp, r7
 888 024a 04B0     		add	sp, sp, #16
 889              		@ sp needed
 890 024c 80BD     		pop	{r7, pc}
 891              	.L52:
 892 024e C046     		.align	2
 893              	.L51:
 894 0250 00000000 		.word	cyBle_eventHandlerFlag
 895 0254 00000000 		.word	.L24
 896 0258 00000000 		.word	cyBle_sflashDeviceAddress
 897 025c 7CF1FF0F 		.word	268431740
 898 0260 00000000 		.word	cyBle_deviceAddress
 899 0264 7DF1FF0F 		.word	268431741
 900 0268 7BF1FF0F 		.word	268431739
 901 026c 00000000 		.word	cyBle_state
 902 0270 00000000 		.word	cyBle_busStatus
 903 0274 00000000 		.word	cyBle_authInfo
 904 0278 00000000 		.word	cyBle_connHandle
 905 027c 00000000 		.word	cyBle_attValuesCCCDFlashMemory
 906 0280 00000000 		.word	cyBle_attValuesCCCD
 907 0284 00000000 		.word	CyBle_ApplCallback
 908              		.cfi_endproc
 909              	.LFE10:
 910              		.size	CyBle_EventHandler, .-CyBle_EventHandler
 911              		.text
 912              	.Letext0:
 913              		.file 2 ".\\Generated_Source\\PSoC4\\cytypes.h"
 914              		.file 3 ".\\Generated_Source\\PSoC4\\BLE_1_Stack.h"
 915              		.file 4 ".\\Generated_Source\\PSoC4\\BLE_1_StackHostMain.h"
 916              		.file 5 ".\\Generated_Source\\PSoC4\\BLE_1_StackGap.h"
 917              		.file 6 ".\\Generated_Source\\PSoC4\\BLE_1_StackGatt.h"
 918              		.file 7 ".\\Generated_Source\\PSoC4\\BLE_1_StackGattServer.h"
 919              		.file 8 ".\\Generated_Source\\PSoC4\\BLE_1.h"
 920              		.file 9 ".\\Generated_Source\\PSoC4\\BLE_1_dis.h"
 921              		.file 10 ".\\Generated_Source\\PSoC4\\BLE_1_hrs.h"
 922              		.file 11 ".\\Generated_Source\\PSoC4\\BLE_1_eventHandler.h"
 923              		.file 12 ".\\Generated_Source\\PSoC4\\BLE_1_gatt.h"